

Microchip MPLAB XC8 Assembler V2.35 build 20211206165544 
                                                                                               Fri Jul 29 19:43:55 2022

Microchip MPLAB XC8 C Compiler v2.35 (Free license) build 20211206165544 Og1 
     1                           	processor	16F887
     2                           	pagewidth 120
     3                           	opt	flic
     4                           	psect	strings,global,class=STRING,delta=2,noexec
     5                           	psect	cinit,global,class=CODE,merge=1,delta=2
     6                           	psect	bssCOMMON,global,class=COMMON,space=1,delta=1,noexec
     7                           	psect	bssBANK1,global,class=BANK1,space=1,delta=1,noexec
     8                           	psect	cstackBANK1,global,class=BANK1,space=1,delta=1,noexec
     9                           	psect	cstackCOMMON,global,class=COMMON,space=1,delta=1,noexec
    10                           	psect	cstackBANK0,global,class=BANK0,space=1,delta=1,noexec
    11                           	psect	maintext,global,class=CODE,split=1,delta=2
    12                           	psect	text1,local,class=CODE,merge=1,delta=2,group=1
    13                           	psect	text2,local,class=CODE,merge=1,delta=2,group=2
    14                           	psect	text3,local,class=CODE,merge=1,delta=2,group=2
    15                           	psect	text4,local,class=CODE,merge=1,delta=2
    16                           	psect	text5,local,class=CODE,merge=1,delta=2
    17                           	psect	text6,local,class=CODE,merge=1,delta=2
    18                           	psect	text7,local,class=CODE,merge=1,delta=2
    19                           	psect	text8,local,class=CODE,merge=1,delta=2
    20                           	psect	text9,local,class=CODE,merge=1,delta=2
    21                           	psect	text10,local,class=CODE,merge=1,delta=2,group=2
    22                           	psect	text11,local,class=CODE,merge=1,delta=2,group=2
    23                           	psect	text12,local,class=CODE,merge=1,delta=2,group=2
    24                           	psect	text13,local,class=CODE,merge=1,delta=2,group=2
    25                           	psect	text14,local,class=CODE,merge=1,delta=2,group=2
    26                           	psect	text15,local,class=CODE,merge=1,delta=2,group=2
    27                           	psect	text16,local,class=CODE,merge=1,delta=2
    28                           	psect	text17,local,class=CODE,merge=1,delta=2,group=2
    29                           	psect	text18,local,class=CODE,merge=1,delta=2
    30                           	psect	text19,local,class=CODE,merge=1,delta=2
    31                           	psect	text20,local,class=CODE,merge=1,delta=2
    32                           	psect	text21,local,class=CODE,merge=1,delta=2
    33                           	psect	text22,local,class=CODE,merge=1,delta=2
    34                           	psect	text23,local,class=CODE,merge=1,delta=2
    35                           	psect	text24,local,class=CODE,merge=1,delta=2
    36                           	psect	text25,local,class=CODE,merge=1,delta=2
    37                           	psect	intentry,global,class=CODE,delta=2
    38                           	psect	text26,local,class=CODE,merge=1,delta=2
    39                           	psect	text27,local,class=CODE,merge=1,delta=2
    40                           	psect	idloc,global,abs,ovrld,class=IDLOC,space=5,delta=2,noexec
    41                           	psect	config,global,abs,ovrld,class=CONFIG,space=4,delta=2,noexec
    42                           	dabs	1,0x7E,2
    43  0000                     
    44                           ; Version 2.40
    45                           ; Generated 17/11/2021 GMT
    46                           ; 
    47                           ; Copyright © 2021, Microchip Technology Inc. and its subsidiaries ("Microchip")
    48                           ; All rights reserved.
    49                           ; 
    50                           ; This software is developed by Microchip Technology Inc. and its subsidiaries ("Microch
      +                          ip").
    51                           ; 
    52                           ; Redistribution and use in source and binary forms, with or without modification, are
    53                           ; permitted provided that the following conditions are met:
    54                           ; 
    55                           ;     1. Redistributions of source code must retain the above copyright notice, this lis
      +                          t of
    56                           ;        conditions and the following disclaimer.
    57                           ; 
    58                           ;     2. Redistributions in binary form must reproduce the above copyright notice, this 
      +                          list
    59                           ;        of conditions and the following disclaimer in the documentation and/or other
    60                           ;        materials provided with the distribution. Publication is not required when
    61                           ;        this file is used in an embedded application.
    62                           ; 
    63                           ;     3. Microchip's name may not be used to endorse or promote products derived from th
      +                          is
    64                           ;        software without specific prior written permission.
    65                           ; 
    66                           ; THIS SOFTWARE IS PROVIDED BY MICROCHIP "AS IS" AND ANY EXPRESS OR IMPLIED WARRANTIES,
    67                           ; INCLUDING, BUT NOT LIMITED TO, THE IMPLIED WARRANTIES OF MERCHANTABILITY AND FITNESS F
      +                          OR
    68                           ; PURPOSE ARE DISCLAIMED.  IN NO EVENT SHALL MICROCHIP BE LIABLE FOR ANY DIRECT, INDIREC
      +                          T,
    69                           ; INCIDENTAL, SPECIAL, EXEMPLARY, OR CONSEQUENTIAL DAMAGES (INCLUDING BUT NOT LIMITED TO
    70                           ; PROCUREMENT OF SUBSTITUTE GOODS OR SERVICES; LOSS OF USE, DATA OR PROFITS; OR BUSINESS
    71                           ; INTERRUPTION) HOWSOEVER CAUSED AND ON ANY THEORY OF LIABILITY, WHETHER IN CONTRACT, ST
      +                          RICT
    72                           ; LIABILITY, OR TORT (INCLUDING NEGLIGENCE OR OTHERWISE) ARISING IN ANY WAY OUT OF THE U
      +                          SE OF
    73                           ; THIS SOFTWARE, EVEN IF ADVISED OF THE POSSIBILITY OF SUCH DAMAGE.
    74                           ; 
    75                           ; 
    76                           ; Code-generator required, PIC16F887 Definitions
    77                           ; 
    78                           ; SFR Addresses
    79  0000                     	;# 
    80  0001                     	;# 
    81  0002                     	;# 
    82  0003                     	;# 
    83  0004                     	;# 
    84  0005                     	;# 
    85  0006                     	;# 
    86  0007                     	;# 
    87  0008                     	;# 
    88  0009                     	;# 
    89  000A                     	;# 
    90  000B                     	;# 
    91  000C                     	;# 
    92  000D                     	;# 
    93  000E                     	;# 
    94  000E                     	;# 
    95  000F                     	;# 
    96  0010                     	;# 
    97  0011                     	;# 
    98  0012                     	;# 
    99  0013                     	;# 
   100  0014                     	;# 
   101  0015                     	;# 
   102  0015                     	;# 
   103  0016                     	;# 
   104  0017                     	;# 
   105  0018                     	;# 
   106  0019                     	;# 
   107  001A                     	;# 
   108  001B                     	;# 
   109  001B                     	;# 
   110  001C                     	;# 
   111  001D                     	;# 
   112  001E                     	;# 
   113  001F                     	;# 
   114  0081                     	;# 
   115  0085                     	;# 
   116  0086                     	;# 
   117  0087                     	;# 
   118  0088                     	;# 
   119  0089                     	;# 
   120  008C                     	;# 
   121  008D                     	;# 
   122  008E                     	;# 
   123  008F                     	;# 
   124  0090                     	;# 
   125  0091                     	;# 
   126  0092                     	;# 
   127  0093                     	;# 
   128  0093                     	;# 
   129  0093                     	;# 
   130  0094                     	;# 
   131  0095                     	;# 
   132  0096                     	;# 
   133  0097                     	;# 
   134  0098                     	;# 
   135  0099                     	;# 
   136  009A                     	;# 
   137  009B                     	;# 
   138  009C                     	;# 
   139  009D                     	;# 
   140  009E                     	;# 
   141  009F                     	;# 
   142  0105                     	;# 
   143  0107                     	;# 
   144  0108                     	;# 
   145  0109                     	;# 
   146  010C                     	;# 
   147  010C                     	;# 
   148  010D                     	;# 
   149  010E                     	;# 
   150  010F                     	;# 
   151  0185                     	;# 
   152  0187                     	;# 
   153  0188                     	;# 
   154  0189                     	;# 
   155  018C                     	;# 
   156  018D                     	;# 
   157  0000                     	;# 
   158  0001                     	;# 
   159  0002                     	;# 
   160  0003                     	;# 
   161  0004                     	;# 
   162  0005                     	;# 
   163  0006                     	;# 
   164  0007                     	;# 
   165  0008                     	;# 
   166  0009                     	;# 
   167  000A                     	;# 
   168  000B                     	;# 
   169  000C                     	;# 
   170  000D                     	;# 
   171  000E                     	;# 
   172  000E                     	;# 
   173  000F                     	;# 
   174  0010                     	;# 
   175  0011                     	;# 
   176  0012                     	;# 
   177  0013                     	;# 
   178  0014                     	;# 
   179  0015                     	;# 
   180  0015                     	;# 
   181  0016                     	;# 
   182  0017                     	;# 
   183  0018                     	;# 
   184  0019                     	;# 
   185  001A                     	;# 
   186  001B                     	;# 
   187  001B                     	;# 
   188  001C                     	;# 
   189  001D                     	;# 
   190  001E                     	;# 
   191  001F                     	;# 
   192  0081                     	;# 
   193  0085                     	;# 
   194  0086                     	;# 
   195  0087                     	;# 
   196  0088                     	;# 
   197  0089                     	;# 
   198  008C                     	;# 
   199  008D                     	;# 
   200  008E                     	;# 
   201  008F                     	;# 
   202  0090                     	;# 
   203  0091                     	;# 
   204  0092                     	;# 
   205  0093                     	;# 
   206  0093                     	;# 
   207  0093                     	;# 
   208  0094                     	;# 
   209  0095                     	;# 
   210  0096                     	;# 
   211  0097                     	;# 
   212  0098                     	;# 
   213  0099                     	;# 
   214  009A                     	;# 
   215  009B                     	;# 
   216  009C                     	;# 
   217  009D                     	;# 
   218  009E                     	;# 
   219  009F                     	;# 
   220  0105                     	;# 
   221  0107                     	;# 
   222  0108                     	;# 
   223  0109                     	;# 
   224  010C                     	;# 
   225  010C                     	;# 
   226  010D                     	;# 
   227  010E                     	;# 
   228  010F                     	;# 
   229  0185                     	;# 
   230  0187                     	;# 
   231  0188                     	;# 
   232  0189                     	;# 
   233  018C                     	;# 
   234  018D                     	;# 
   235  0000                     	;# 
   236  0001                     	;# 
   237  0002                     	;# 
   238  0003                     	;# 
   239  0004                     	;# 
   240  0005                     	;# 
   241  0006                     	;# 
   242  0007                     	;# 
   243  0008                     	;# 
   244  0009                     	;# 
   245  000A                     	;# 
   246  000B                     	;# 
   247  000C                     	;# 
   248  000D                     	;# 
   249  000E                     	;# 
   250  000E                     	;# 
   251  000F                     	;# 
   252  0010                     	;# 
   253  0011                     	;# 
   254  0012                     	;# 
   255  0013                     	;# 
   256  0014                     	;# 
   257  0015                     	;# 
   258  0015                     	;# 
   259  0016                     	;# 
   260  0017                     	;# 
   261  0018                     	;# 
   262  0019                     	;# 
   263  001A                     	;# 
   264  001B                     	;# 
   265  001B                     	;# 
   266  001C                     	;# 
   267  001D                     	;# 
   268  001E                     	;# 
   269  001F                     	;# 
   270  0081                     	;# 
   271  0085                     	;# 
   272  0086                     	;# 
   273  0087                     	;# 
   274  0088                     	;# 
   275  0089                     	;# 
   276  008C                     	;# 
   277  008D                     	;# 
   278  008E                     	;# 
   279  008F                     	;# 
   280  0090                     	;# 
   281  0091                     	;# 
   282  0092                     	;# 
   283  0093                     	;# 
   284  0093                     	;# 
   285  0093                     	;# 
   286  0094                     	;# 
   287  0095                     	;# 
   288  0096                     	;# 
   289  0097                     	;# 
   290  0098                     	;# 
   291  0099                     	;# 
   292  009A                     	;# 
   293  009B                     	;# 
   294  009C                     	;# 
   295  009D                     	;# 
   296  009E                     	;# 
   297  009F                     	;# 
   298  0105                     	;# 
   299  0107                     	;# 
   300  0108                     	;# 
   301  0109                     	;# 
   302  010C                     	;# 
   303  010C                     	;# 
   304  010D                     	;# 
   305  010E                     	;# 
   306  010F                     	;# 
   307  0185                     	;# 
   308  0187                     	;# 
   309  0188                     	;# 
   310  0189                     	;# 
   311  018C                     	;# 
   312  018D                     	;# 
   313  0000                     	;# 
   314  0001                     	;# 
   315  0002                     	;# 
   316  0003                     	;# 
   317  0004                     	;# 
   318  0005                     	;# 
   319  0006                     	;# 
   320  0007                     	;# 
   321  0008                     	;# 
   322  0009                     	;# 
   323  000A                     	;# 
   324  000B                     	;# 
   325  000C                     	;# 
   326  000D                     	;# 
   327  000E                     	;# 
   328  000E                     	;# 
   329  000F                     	;# 
   330  0010                     	;# 
   331  0011                     	;# 
   332  0012                     	;# 
   333  0013                     	;# 
   334  0014                     	;# 
   335  0015                     	;# 
   336  0015                     	;# 
   337  0016                     	;# 
   338  0017                     	;# 
   339  0018                     	;# 
   340  0019                     	;# 
   341  001A                     	;# 
   342  001B                     	;# 
   343  001B                     	;# 
   344  001C                     	;# 
   345  001D                     	;# 
   346  001E                     	;# 
   347  001F                     	;# 
   348  0081                     	;# 
   349  0085                     	;# 
   350  0086                     	;# 
   351  0087                     	;# 
   352  0088                     	;# 
   353  0089                     	;# 
   354  008C                     	;# 
   355  008D                     	;# 
   356  008E                     	;# 
   357  008F                     	;# 
   358  0090                     	;# 
   359  0091                     	;# 
   360  0092                     	;# 
   361  0093                     	;# 
   362  0093                     	;# 
   363  0093                     	;# 
   364  0094                     	;# 
   365  0095                     	;# 
   366  0096                     	;# 
   367  0097                     	;# 
   368  0098                     	;# 
   369  0099                     	;# 
   370  009A                     	;# 
   371  009B                     	;# 
   372  009C                     	;# 
   373  009D                     	;# 
   374  009E                     	;# 
   375  009F                     	;# 
   376  0105                     	;# 
   377  0107                     	;# 
   378  0108                     	;# 
   379  0109                     	;# 
   380  010C                     	;# 
   381  010C                     	;# 
   382  010D                     	;# 
   383  010E                     	;# 
   384  010F                     	;# 
   385  0185                     	;# 
   386  0187                     	;# 
   387  0188                     	;# 
   388  0189                     	;# 
   389  018C                     	;# 
   390  018D                     	;# 
   391  0000                     	;# 
   392  0001                     	;# 
   393  0002                     	;# 
   394  0003                     	;# 
   395  0004                     	;# 
   396  0005                     	;# 
   397  0006                     	;# 
   398  0007                     	;# 
   399  0008                     	;# 
   400  0009                     	;# 
   401  000A                     	;# 
   402  000B                     	;# 
   403  000C                     	;# 
   404  000D                     	;# 
   405  000E                     	;# 
   406  000E                     	;# 
   407  000F                     	;# 
   408  0010                     	;# 
   409  0011                     	;# 
   410  0012                     	;# 
   411  0013                     	;# 
   412  0014                     	;# 
   413  0015                     	;# 
   414  0015                     	;# 
   415  0016                     	;# 
   416  0017                     	;# 
   417  0018                     	;# 
   418  0019                     	;# 
   419  001A                     	;# 
   420  001B                     	;# 
   421  001B                     	;# 
   422  001C                     	;# 
   423  001D                     	;# 
   424  001E                     	;# 
   425  001F                     	;# 
   426  0081                     	;# 
   427  0085                     	;# 
   428  0086                     	;# 
   429  0087                     	;# 
   430  0088                     	;# 
   431  0089                     	;# 
   432  008C                     	;# 
   433  008D                     	;# 
   434  008E                     	;# 
   435  008F                     	;# 
   436  0090                     	;# 
   437  0091                     	;# 
   438  0092                     	;# 
   439  0093                     	;# 
   440  0093                     	;# 
   441  0093                     	;# 
   442  0094                     	;# 
   443  0095                     	;# 
   444  0096                     	;# 
   445  0097                     	;# 
   446  0098                     	;# 
   447  0099                     	;# 
   448  009A                     	;# 
   449  009B                     	;# 
   450  009C                     	;# 
   451  009D                     	;# 
   452  009E                     	;# 
   453  009F                     	;# 
   454  0105                     	;# 
   455  0107                     	;# 
   456  0108                     	;# 
   457  0109                     	;# 
   458  010C                     	;# 
   459  010C                     	;# 
   460  010D                     	;# 
   461  010E                     	;# 
   462  010F                     	;# 
   463  0185                     	;# 
   464  0187                     	;# 
   465  0188                     	;# 
   466  0189                     	;# 
   467  018C                     	;# 
   468  018D                     	;# 
   469  0000                     	;# 
   470  0001                     	;# 
   471  0002                     	;# 
   472  0003                     	;# 
   473  0004                     	;# 
   474  0005                     	;# 
   475  0006                     	;# 
   476  0007                     	;# 
   477  0008                     	;# 
   478  0009                     	;# 
   479  000A                     	;# 
   480  000B                     	;# 
   481  000C                     	;# 
   482  000D                     	;# 
   483  000E                     	;# 
   484  000E                     	;# 
   485  000F                     	;# 
   486  0010                     	;# 
   487  0011                     	;# 
   488  0012                     	;# 
   489  0013                     	;# 
   490  0014                     	;# 
   491  0015                     	;# 
   492  0015                     	;# 
   493  0016                     	;# 
   494  0017                     	;# 
   495  0018                     	;# 
   496  0019                     	;# 
   497  001A                     	;# 
   498  001B                     	;# 
   499  001B                     	;# 
   500  001C                     	;# 
   501  001D                     	;# 
   502  001E                     	;# 
   503  001F                     	;# 
   504  0081                     	;# 
   505  0085                     	;# 
   506  0086                     	;# 
   507  0087                     	;# 
   508  0088                     	;# 
   509  0089                     	;# 
   510  008C                     	;# 
   511  008D                     	;# 
   512  008E                     	;# 
   513  008F                     	;# 
   514  0090                     	;# 
   515  0091                     	;# 
   516  0092                     	;# 
   517  0093                     	;# 
   518  0093                     	;# 
   519  0093                     	;# 
   520  0094                     	;# 
   521  0095                     	;# 
   522  0096                     	;# 
   523  0097                     	;# 
   524  0098                     	;# 
   525  0099                     	;# 
   526  009A                     	;# 
   527  009B                     	;# 
   528  009C                     	;# 
   529  009D                     	;# 
   530  009E                     	;# 
   531  009F                     	;# 
   532  0105                     	;# 
   533  0107                     	;# 
   534  0108                     	;# 
   535  0109                     	;# 
   536  010C                     	;# 
   537  010C                     	;# 
   538  010D                     	;# 
   539  010E                     	;# 
   540  010F                     	;# 
   541  0185                     	;# 
   542  0187                     	;# 
   543  0188                     	;# 
   544  0189                     	;# 
   545  018C                     	;# 
   546  018D                     	;# 
   547  0000                     	;# 
   548  0001                     	;# 
   549  0002                     	;# 
   550  0003                     	;# 
   551  0004                     	;# 
   552  0005                     	;# 
   553  0006                     	;# 
   554  0007                     	;# 
   555  0008                     	;# 
   556  0009                     	;# 
   557  000A                     	;# 
   558  000B                     	;# 
   559  000C                     	;# 
   560  000D                     	;# 
   561  000E                     	;# 
   562  000E                     	;# 
   563  000F                     	;# 
   564  0010                     	;# 
   565  0011                     	;# 
   566  0012                     	;# 
   567  0013                     	;# 
   568  0014                     	;# 
   569  0015                     	;# 
   570  0015                     	;# 
   571  0016                     	;# 
   572  0017                     	;# 
   573  0018                     	;# 
   574  0019                     	;# 
   575  001A                     	;# 
   576  001B                     	;# 
   577  001B                     	;# 
   578  001C                     	;# 
   579  001D                     	;# 
   580  001E                     	;# 
   581  001F                     	;# 
   582  0081                     	;# 
   583  0085                     	;# 
   584  0086                     	;# 
   585  0087                     	;# 
   586  0088                     	;# 
   587  0089                     	;# 
   588  008C                     	;# 
   589  008D                     	;# 
   590  008E                     	;# 
   591  008F                     	;# 
   592  0090                     	;# 
   593  0091                     	;# 
   594  0092                     	;# 
   595  0093                     	;# 
   596  0093                     	;# 
   597  0093                     	;# 
   598  0094                     	;# 
   599  0095                     	;# 
   600  0096                     	;# 
   601  0097                     	;# 
   602  0098                     	;# 
   603  0099                     	;# 
   604  009A                     	;# 
   605  009B                     	;# 
   606  009C                     	;# 
   607  009D                     	;# 
   608  009E                     	;# 
   609  009F                     	;# 
   610  0105                     	;# 
   611  0107                     	;# 
   612  0108                     	;# 
   613  0109                     	;# 
   614  010C                     	;# 
   615  010C                     	;# 
   616  010D                     	;# 
   617  010E                     	;# 
   618  010F                     	;# 
   619  0185                     	;# 
   620  0187                     	;# 
   621  0188                     	;# 
   622  0189                     	;# 
   623  018C                     	;# 
   624  018D                     	;# 
   625                           
   626                           	psect	strings
   627  0800                     __pstrings:
   628  0800                     stringtab:
   629  0800                     __stringtab:
   630                           
   631                           ;	String table - string pointers are 1 byte each
   632  0800  1BFF               	btfsc	btemp+1,7
   633  0801  280A               	ljmp	stringcode
   634  0802  1383               	bcf	3,7
   635  0803  187F               	btfsc	btemp+1,0
   636  0804  1783               	bsf	3,7
   637  0805  0800               	movf	0,w
   638  0806  0A84               	incf	4,f
   639  0807  1903               	skipnz
   640  0808  0AFF               	incf	btemp+1,f
   641  0809  0008               	return
   642  080A                     stringcode:
   643  080A                     stringdir:
   644  080A  3008               	movlw	high stringdir
   645  080B  008A               	movwf	10
   646  080C  0804               	movf	4,w
   647  080D  0A84               	incf	4,f
   648  080E  0782               	addwf	2,f
   649  080F                     __stringbase:
   650  080F  3400               	retlw	0
   651  0810                     __end_of__stringtab:
   652  0810                     _dpowers:
   653  0810  3401               	retlw	1
   654  0811  3400               	retlw	0
   655  0812  340A               	retlw	10
   656  0813  3400               	retlw	0
   657  0814  3464               	retlw	100
   658  0815  3400               	retlw	0
   659  0816  34E8               	retlw	232
   660  0817  3403               	retlw	3
   661  0818  3410               	retlw	16
   662  0819  3427               	retlw	39
   663  081A                     __end_of_dpowers:
   664  0006                     _PORTB	set	6
   665  000B                     _INTCONbits	set	11
   666  0001                     _TMR0	set	1
   667  001B                     _CCPR2L	set	27
   668  0015                     _CCPR1L	set	21
   669  001D                     _CCP2CONbits	set	29
   670  001D                     _CCP2CON	set	29
   671  0017                     _CCP1CONbits	set	23
   672  0017                     _CCP1CON	set	23
   673  0012                     _T2CONbits	set	18
   674  001E                     _ADRESH	set	30
   675  000C                     _PIR1bits	set	12
   676  001F                     _ADCON0bits	set	31
   677  0008                     _PORTDbits	set	8
   678  0043                     _RD3	set	67
   679  0047                     _RD7	set	71
   680  0046                     _RD6	set	70
   681  0045                     _RD5	set	69
   682  0044                     _RD4	set	68
   683  008C                     _PIE1bits	set	140
   684  0086                     _TRISB	set	134
   685  0087                     _TRISC	set	135
   686  0088                     _TRISD	set	136
   687  0081                     _OPTION_REGbits	set	129
   688  0092                     _PR2	set	146
   689  0087                     _TRISCbits	set	135
   690  008F                     _OSCCONbits	set	143
   691  009F                     _ADCON1bits	set	159
   692  0189                     _ANSELH	set	393
   693  081A                     STR_3:
   694  081A  3420               	retlw	32	;' '
   695  081B  3420               	retlw	32	;' '
   696  081C  3420               	retlw	32	;' '
   697  081D  3420               	retlw	32	;' '
   698  081E  3420               	retlw	32	;' '
   699  081F  3420               	retlw	32	;' '
   700  0820  3450               	retlw	80	;'P'
   701  0821  344F               	retlw	79	;'O'
   702  0822  3454               	retlw	84	;'T'
   703  0823  3431               	retlw	49	;'1'
   704  0824  3420               	retlw	32	;' '
   705  0825  3420               	retlw	32	;' '
   706  0826  3420               	retlw	32	;' '
   707  0827  3420               	retlw	32	;' '
   708  0828  3420               	retlw	32	;' '
   709  0829  3420               	retlw	32	;' '
   710  082A  3420               	retlw	32	;' '
   711  082B  3420               	retlw	32	;' '
   712  082C  3400               	retlw	0
   713  082D                     STR_6:
   714  082D  3420               	retlw	32	;' '
   715  082E  3420               	retlw	32	;' '
   716  082F  3420               	retlw	32	;' '
   717  0830  3420               	retlw	32	;' '
   718  0831  3420               	retlw	32	;' '
   719  0832  3420               	retlw	32	;' '
   720  0833  3425               	retlw	37	;'%'
   721  0834  3464               	retlw	100	;'d'
   722  0835  342E               	retlw	46	;'.'
   723  0836  3425               	retlw	37	;'%'
   724  0837  3464               	retlw	100	;'d'
   725  0838  3456               	retlw	86	;'V'
   726  0839  3420               	retlw	32	;' '
   727  083A  3420               	retlw	32	;' '
   728  083B  3420               	retlw	32	;' '
   729  083C  3420               	retlw	32	;' '
   730  083D  3420               	retlw	32	;' '
   731  083E  3420               	retlw	32	;' '
   732  083F  3400               	retlw	0
   733  0840                     STR_4:
   734  0840  3420               	retlw	32	;' '
   735  0841  3420               	retlw	32	;' '
   736  0842  3420               	retlw	32	;' '
   737  0843  3420               	retlw	32	;' '
   738  0844  3420               	retlw	32	;' '
   739  0845  3420               	retlw	32	;' '
   740  0846  3425               	retlw	37	;'%'
   741  0847  3464               	retlw	100	;'d'
   742  0848  342E               	retlw	46	;'.'
   743  0849  3425               	retlw	37	;'%'
   744  084A  3464               	retlw	100	;'d'
   745  084B  3456               	retlw	86	;'V'
   746  084C  3420               	retlw	32	;' '
   747  084D  3420               	retlw	32	;' '
   748  084E  3420               	retlw	32	;' '
   749  084F  3420               	retlw	32	;' '
   750  0850  3420               	retlw	32	;' '
   751  0851  3400               	retlw	0
   752  0852                     STR_5:
   753  0852  3420               	retlw	32	;' '
   754  0853  3420               	retlw	32	;' '
   755  0854  3420               	retlw	32	;' '
   756  0855  3420               	retlw	32	;' '
   757  0856  3420               	retlw	32	;' '
   758  0857  3420               	retlw	32	;' '
   759  0858  3450               	retlw	80	;'P'
   760  0859  344F               	retlw	79	;'O'
   761  085A  3454               	retlw	84	;'T'
   762  085B  3432               	retlw	50	;'2'
   763  085C  3420               	retlw	32	;' '
   764  085D  3420               	retlw	32	;' '
   765  085E  3420               	retlw	32	;' '
   766  085F  3420               	retlw	32	;' '
   767  0860  3420               	retlw	32	;' '
   768  0861  3420               	retlw	32	;' '
   769  0862  3400               	retlw	0
   770  0863                     STR_1:
   771  0863  3420               	retlw	32	;' '
   772  0864  3443               	retlw	67	;'C'
   773  0865  3452               	retlw	82	;'R'
   774  0866  3449               	retlw	73	;'I'
   775  0867  3453               	retlw	83	;'S'
   776  0868  3454               	retlw	84	;'T'
   777  0869  3449               	retlw	73	;'I'
   778  086A  3441               	retlw	65	;'A'
   779  086B  344E               	retlw	78	;'N'
   780  086C  3420               	retlw	32	;' '
   781  086D  3443               	retlw	67	;'C'
   782  086E  3441               	retlw	65	;'A'
   783  086F  3454               	retlw	84	;'T'
   784  0870  3455               	retlw	85	;'U'
   785  0871  3420               	retlw	32	;' '
   786  0872  3400               	retlw	0
   787  0873                     STR_2:
   788  0873  3420               	retlw	32	;' '
   789  0874  3432               	retlw	50	;'2'
   790  0875  3430               	retlw	48	;'0'
   791  0876  3432               	retlw	50	;'2'
   792  0877  3439               	retlw	57	;'9'
   793  0878  3435               	retlw	53	;'5'
   794  0879  3400               	retlw	0
   795                           
   796                           	psect	cinit
   797  000F                     start_initialization:	
   798                           ; #config settings
   799                           
   800  000F                     __initialization:
   801                           
   802                           ; Clear objects allocated to COMMON
   803  000F  01F7               	clrf	__pbssCOMMON& (0+127)
   804  0010  01F8               	clrf	(__pbssCOMMON+1)& (0+127)
   805  0011  01F9               	clrf	(__pbssCOMMON+2)& (0+127)
   806  0012  01FA               	clrf	(__pbssCOMMON+3)& (0+127)
   807                           
   808                           ; Clear objects allocated to BANK1
   809  0013  1683               	bsf	3,5	;RP0=1, select bank1
   810  0014  1303               	bcf	3,6	;RP1=0, select bank1
   811  0015  01BD               	clrf	__pbssBANK1& (0+127)
   812  0016  01BE               	clrf	(__pbssBANK1+1)& (0+127)
   813  0017  01BF               	clrf	(__pbssBANK1+2)& (0+127)
   814  0018  01C0               	clrf	(__pbssBANK1+3)& (0+127)
   815  0019  01C1               	clrf	(__pbssBANK1+4)& (0+127)
   816  001A  01C2               	clrf	(__pbssBANK1+5)& (0+127)
   817  001B  01C3               	clrf	(__pbssBANK1+6)& (0+127)
   818  001C  01C4               	clrf	(__pbssBANK1+7)& (0+127)
   819  001D  01C5               	clrf	(__pbssBANK1+8)& (0+127)
   820  001E  01C6               	clrf	(__pbssBANK1+9)& (0+127)
   821  001F  01C7               	clrf	(__pbssBANK1+10)& (0+127)
   822  0020                     end_of_initialization:	
   823                           ;End of C runtime variable initialization code
   824                           
   825  0020                     __end_of__initialization:
   826  0020  0183               	clrf	3
   827  0021  120A  158A  2C64   	ljmp	_main	;jump to C main() function
   828                           
   829                           	psect	bssCOMMON
   830  0077                     __pbssCOMMON:
   831  0077                     _ciclo_trabajo:
   832  0077                     	ds	1
   833  0078                     _bandera:
   834  0078                     	ds	1
   835  0079                     _canal_ADC:
   836  0079                     	ds	1
   837  007A                     _contador:
   838  007A                     	ds	1
   839                           
   840                           	psect	bssBANK1
   841  00BD                     __pbssBANK1:
   842  00BD                     _VOLTAJE_1:
   843  00BD                     	ds	2
   844  00BF                     _VOLTAJE_0:
   845  00BF                     	ds	2
   846  00C1                     _dec_POT_1:
   847  00C1                     	ds	1
   848  00C2                     _init_POT_1:
   849  00C2                     	ds	1
   850  00C3                     _dec_POT_0:
   851  00C3                     	ds	1
   852  00C4                     _init_POT_0:
   853  00C4                     	ds	1
   854  00C5                     _VAL_POT_1:
   855  00C5                     	ds	1
   856  00C6                     _VAL_POT_0:
   857  00C6                     	ds	1
   858  00C7                     _s:
   859  00C7                     	ds	1
   860                           
   861                           	psect	cstackBANK1
   862  00A0                     __pcstackBANK1:
   863  00A0                     ??___fladd:
   864                           
   865                           ; 1 bytes @ 0x0
   866  00A0                     	ds	8
   867  00A8                     ?___fltol:
   868  00A8                     ___fltol@f1:	
   869                           ; 4 bytes @ 0x8
   870                           
   871                           
   872                           ; 4 bytes @ 0x8
   873  00A8                     	ds	4
   874  00AC                     ??___fltol:
   875                           
   876                           ; 1 bytes @ 0xC
   877  00AC                     	ds	5
   878  00B1                     ?_map:
   879  00B1                     map@x0:	
   880                           ; 2 bytes @ 0x11
   881                           
   882                           
   883                           ; 1 bytes @ 0x11
   884  00B1                     	ds	1
   885  00B2                     map@x1:
   886                           
   887                           ; 1 bytes @ 0x12
   888  00B2                     	ds	1
   889  00B3                     map@y0:
   890                           
   891                           ; 2 bytes @ 0x13
   892  00B3                     	ds	2
   893  00B5                     map@y1:
   894                           
   895                           ; 2 bytes @ 0x15
   896  00B5                     	ds	2
   897  00B7                     map@x:
   898                           
   899                           ; 1 bytes @ 0x17
   900  00B7                     	ds	1
   901  00B8                     ??_main:
   902                           
   903                           ; 1 bytes @ 0x18
   904  00B8                     	ds	5
   905                           
   906                           	psect	cstackCOMMON
   907  0070                     __pcstackCOMMON:
   908  0070                     ?_setup:
   909  0070                     ?_Lcd_Port:	
   910                           ; 1 bytes @ 0x0
   911                           
   912  0070                     ?_Lcd_Cmd:	
   913                           ; 1 bytes @ 0x0
   914                           
   915  0070                     ?_Lcd_Clear:	
   916                           ; 1 bytes @ 0x0
   917                           
   918  0070                     ?_Lcd_Init:	
   919                           ; 1 bytes @ 0x0
   920                           
   921  0070                     ?_Lcd_Write_Char:	
   922                           ; 1 bytes @ 0x0
   923                           
   924  0070                     ?_adc_start:	
   925                           ; 1 bytes @ 0x0
   926                           
   927  0070                     ?_init_osc_MHz:	
   928                           ; 1 bytes @ 0x0
   929                           
   930  0070                     ?_tmr0_reload:	
   931                           ; 1 bytes @ 0x0
   932                           
   933  0070                     ?_isr:	
   934                           ; 1 bytes @ 0x0
   935                           
   936  0070                     ?_main:	
   937                           ; 1 bytes @ 0x0
   938                           
   939  0070                     ?i1_tmr0_reload:	
   940                           ; 1 bytes @ 0x0
   941                           
   942  0070                     ??i1_tmr0_reload:	
   943                           ; 1 bytes @ 0x0
   944                           
   945  0070                     ?_adc_read:	
   946                           ; 1 bytes @ 0x0
   947                           
   948                           
   949                           ; 2 bytes @ 0x0
   950  0070                     	ds	2
   951  0072                     ??_adc_read:
   952                           
   953                           ; 1 bytes @ 0x2
   954  0072                     	ds	2
   955  0074                     ??_isr:
   956                           
   957                           ; 1 bytes @ 0x4
   958  0074                     	ds	3
   959                           
   960                           	psect	cstackBANK0
   961  0020                     __pcstackBANK0:
   962  0020                     ??_Lcd_Port:
   963  0020                     ?_adc_init:	
   964                           ; 1 bytes @ 0x0
   965                           
   966  0020                     ??_adc_start:	
   967                           ; 1 bytes @ 0x0
   968                           
   969  0020                     ??_init_osc_MHz:	
   970                           ; 1 bytes @ 0x0
   971                           
   972  0020                     ?_tmr0_init:	
   973                           ; 1 bytes @ 0x0
   974                           
   975  0020                     ??_tmr0_reload:	
   976                           ; 1 bytes @ 0x0
   977                           
   978  0020                     ?___bmul:	
   979                           ; 1 bytes @ 0x0
   980                           
   981  0020                     ?__Umul8_16:	
   982                           ; 1 bytes @ 0x0
   983                           
   984  0020                     ?___lwdiv:	
   985                           ; 2 bytes @ 0x0
   986                           
   987  0020                     ?___xxtofl:	
   988                           ; 2 bytes @ 0x0
   989                           
   990  0020                     Lcd_Port@a:	
   991                           ; 4 bytes @ 0x0
   992                           
   993  0020                     adc_init@vref_plus:	
   994                           ; 1 bytes @ 0x0
   995                           
   996  0020                     ___bmul@multiplicand:	
   997                           ; 1 bytes @ 0x0
   998                           
   999  0020                     __Umul8_16@multiplicand:	
  1000                           ; 1 bytes @ 0x0
  1001                           
  1002  0020                     tmr0_init@prescaler:	
  1003                           ; 1 bytes @ 0x0
  1004                           
  1005  0020                     ___lwdiv@divisor:	
  1006                           ; 2 bytes @ 0x0
  1007                           
  1008  0020                     ___xxtofl@val:	
  1009                           ; 2 bytes @ 0x0
  1010                           
  1011                           
  1012                           ; 4 bytes @ 0x0
  1013  0020                     	ds	1
  1014  0021                     ??_Lcd_Cmd:
  1015  0021                     ??_Lcd_Write_Char:	
  1016                           ; 1 bytes @ 0x1
  1017                           
  1018  0021                     ??___bmul:	
  1019                           ; 1 bytes @ 0x1
  1020                           
  1021  0021                     adc_init@vref_minus:	
  1022                           ; 1 bytes @ 0x1
  1023                           
  1024  0021                     adc_start@channel:	
  1025                           ; 1 bytes @ 0x1
  1026                           
  1027                           
  1028                           ; 1 bytes @ 0x1
  1029  0021                     	ds	1
  1030  0022                     ??__Umul8_16:
  1031  0022                     ??_adc_init:	
  1032                           ; 1 bytes @ 0x2
  1033                           
  1034  0022                     ??_tmr0_init:	
  1035                           ; 1 bytes @ 0x2
  1036                           
  1037  0022                     Lcd_Write_Char@temp:	
  1038                           ; 1 bytes @ 0x2
  1039                           
  1040  0022                     init_osc_MHz@freq:	
  1041                           ; 1 bytes @ 0x2
  1042                           
  1043  0022                     ___bmul@product:	
  1044                           ; 1 bytes @ 0x2
  1045                           
  1046  0022                     ___lwdiv@dividend:	
  1047                           ; 1 bytes @ 0x2
  1048                           
  1049                           
  1050                           ; 2 bytes @ 0x2
  1051  0022                     	ds	1
  1052  0023                     Lcd_Cmd@a:
  1053  0023                     Lcd_Write_Char@y:	
  1054                           ; 1 bytes @ 0x3
  1055                           
  1056  0023                     ___bmul@multiplier:	
  1057                           ; 1 bytes @ 0x3
  1058                           
  1059                           
  1060                           ; 1 bytes @ 0x3
  1061  0023                     	ds	1
  1062  0024                     ??_Lcd_Clear:
  1063  0024                     ?_Lcd_Set_Cursor:	
  1064                           ; 1 bytes @ 0x4
  1065                           
  1066  0024                     ??_Lcd_Init:	
  1067                           ; 1 bytes @ 0x4
  1068                           
  1069  0024                     ??___lwdiv:	
  1070                           ; 1 bytes @ 0x4
  1071                           
  1072  0024                     ??___xxtofl:	
  1073                           ; 1 bytes @ 0x4
  1074                           
  1075  0024                     Lcd_Set_Cursor@b:	
  1076                           ; 1 bytes @ 0x4
  1077                           
  1078  0024                     Lcd_Write_Char@a:	
  1079                           ; 1 bytes @ 0x4
  1080                           
  1081  0024                     adc_init@adc_cs:	
  1082                           ; 1 bytes @ 0x4
  1083                           
  1084  0024                     __Umul8_16@product:	
  1085                           ; 1 bytes @ 0x4
  1086                           
  1087                           
  1088                           ; 2 bytes @ 0x4
  1089  0024                     	ds	1
  1090  0025                     ??_setup:
  1091  0025                     ??_Lcd_Set_Cursor:	
  1092                           ; 1 bytes @ 0x5
  1093                           
  1094  0025                     ?_Lcd_Write_String:	
  1095                           ; 1 bytes @ 0x5
  1096                           
  1097  0025                     Lcd_Write_String@a:	
  1098                           ; 1 bytes @ 0x5
  1099                           
  1100  0025                     ___lwdiv@quotient:	
  1101                           ; 2 bytes @ 0x5
  1102                           
  1103                           
  1104                           ; 2 bytes @ 0x5
  1105  0025                     	ds	1
  1106  0026                     __Umul8_16@word_mpld:
  1107                           
  1108                           ; 2 bytes @ 0x6
  1109  0026                     	ds	1
  1110  0027                     ??_Lcd_Write_String:
  1111  0027                     Lcd_Set_Cursor@a:	
  1112                           ; 1 bytes @ 0x7
  1113                           
  1114  0027                     ___lwdiv@counter:	
  1115                           ; 1 bytes @ 0x7
  1116                           
  1117                           
  1118                           ; 1 bytes @ 0x7
  1119  0027                     	ds	1
  1120  0028                     ?___lwmod:
  1121  0028                     Lcd_Set_Cursor@z:	
  1122                           ; 2 bytes @ 0x8
  1123                           
  1124  0028                     __Umul8_16@multiplier:	
  1125                           ; 1 bytes @ 0x8
  1126                           
  1127  0028                     ___xxtofl@sign:	
  1128                           ; 1 bytes @ 0x8
  1129                           
  1130  0028                     ___lwmod@divisor:	
  1131                           ; 1 bytes @ 0x8
  1132                           
  1133                           
  1134                           ; 2 bytes @ 0x8
  1135  0028                     	ds	1
  1136  0029                     Lcd_Set_Cursor@y:
  1137  0029                     ___xxtofl@exp:	
  1138                           ; 1 bytes @ 0x9
  1139                           
  1140                           
  1141                           ; 1 bytes @ 0x9
  1142  0029                     	ds	1
  1143  002A                     Lcd_Set_Cursor@temp:
  1144  002A                     Lcd_Write_String@i:	
  1145                           ; 1 bytes @ 0xA
  1146                           
  1147  002A                     ___lwmod@dividend:	
  1148                           ; 2 bytes @ 0xA
  1149                           
  1150  002A                     ___xxtofl@arg:	
  1151                           ; 2 bytes @ 0xA
  1152                           
  1153                           
  1154                           ; 4 bytes @ 0xA
  1155  002A                     	ds	2
  1156  002C                     ??___lwmod:
  1157                           
  1158                           ; 1 bytes @ 0xC
  1159  002C                     	ds	1
  1160  002D                     ___lwmod@counter:
  1161                           
  1162                           ; 1 bytes @ 0xD
  1163  002D                     	ds	1
  1164  002E                     ?_sprintf:
  1165  002E                     ?___fldiv:	
  1166                           ; 2 bytes @ 0xE
  1167                           
  1168  002E                     sprintf@f:	
  1169                           ; 4 bytes @ 0xE
  1170                           
  1171  002E                     ___fldiv@a:	
  1172                           ; 1 bytes @ 0xE
  1173                           
  1174                           
  1175                           ; 4 bytes @ 0xE
  1176  002E                     	ds	4
  1177  0032                     ___fldiv@b:
  1178                           
  1179                           ; 4 bytes @ 0x12
  1180  0032                     	ds	1
  1181  0033                     ??_sprintf:
  1182                           
  1183                           ; 1 bytes @ 0x13
  1184  0033                     	ds	3
  1185  0036                     ??___fldiv:
  1186  0036                     sprintf@ap:	
  1187                           ; 1 bytes @ 0x16
  1188                           
  1189                           
  1190                           ; 1 bytes @ 0x16
  1191  0036                     	ds	1
  1192  0037                     sprintf@flag:
  1193                           
  1194                           ; 1 bytes @ 0x17
  1195  0037                     	ds	1
  1196  0038                     sprintf@prec:
  1197                           
  1198                           ; 1 bytes @ 0x18
  1199  0038                     	ds	1
  1200  0039                     sprintf@val:
  1201                           
  1202                           ; 2 bytes @ 0x19
  1203  0039                     	ds	2
  1204  003B                     sprintf@sp:
  1205  003B                     ___fldiv@rem:	
  1206                           ; 1 bytes @ 0x1B
  1207                           
  1208                           
  1209                           ; 4 bytes @ 0x1B
  1210  003B                     	ds	1
  1211  003C                     sprintf@c:
  1212                           
  1213                           ; 1 bytes @ 0x1C
  1214  003C                     	ds	3
  1215  003F                     ___fldiv@sign:
  1216                           
  1217                           ; 1 bytes @ 0x1F
  1218  003F                     	ds	1
  1219  0040                     ___fldiv@new_exp:
  1220                           
  1221                           ; 2 bytes @ 0x20
  1222  0040                     	ds	2
  1223  0042                     ___fldiv@grs:
  1224                           
  1225                           ; 4 bytes @ 0x22
  1226  0042                     	ds	4
  1227  0046                     ___fldiv@bexp:
  1228                           
  1229                           ; 1 bytes @ 0x26
  1230  0046                     	ds	1
  1231  0047                     ___fldiv@aexp:
  1232                           
  1233                           ; 1 bytes @ 0x27
  1234  0047                     	ds	1
  1235  0048                     ?___flmul:
  1236  0048                     ___flmul@b:	
  1237                           ; 4 bytes @ 0x28
  1238                           
  1239                           
  1240                           ; 4 bytes @ 0x28
  1241  0048                     	ds	4
  1242  004C                     ___flmul@a:
  1243                           
  1244                           ; 4 bytes @ 0x2C
  1245  004C                     	ds	4
  1246  0050                     ??___flmul:
  1247                           
  1248                           ; 1 bytes @ 0x30
  1249  0050                     	ds	5
  1250  0055                     ___flmul@sign:
  1251                           
  1252                           ; 1 bytes @ 0x35
  1253  0055                     	ds	1
  1254  0056                     ___flmul@grs:
  1255                           
  1256                           ; 4 bytes @ 0x36
  1257  0056                     	ds	4
  1258  005A                     ___flmul@aexp:
  1259                           
  1260                           ; 1 bytes @ 0x3A
  1261  005A                     	ds	1
  1262  005B                     ___flmul@bexp:
  1263                           
  1264                           ; 1 bytes @ 0x3B
  1265  005B                     	ds	1
  1266  005C                     ___flmul@prod:
  1267                           
  1268                           ; 4 bytes @ 0x3C
  1269  005C                     	ds	4
  1270  0060                     ___flmul@temp:
  1271                           
  1272                           ; 2 bytes @ 0x40
  1273  0060                     	ds	2
  1274  0062                     ?___fladd:
  1275  0062                     ___fladd@b:	
  1276                           ; 4 bytes @ 0x42
  1277                           
  1278                           
  1279                           ; 4 bytes @ 0x42
  1280  0062                     	ds	4
  1281  0066                     ___fladd@a:
  1282                           
  1283                           ; 4 bytes @ 0x46
  1284  0066                     	ds	4
  1285  006A                     ___fladd@signs:
  1286                           
  1287                           ; 1 bytes @ 0x4A
  1288  006A                     	ds	1
  1289  006B                     ___fladd@aexp:
  1290                           
  1291                           ; 1 bytes @ 0x4B
  1292  006B                     	ds	1
  1293  006C                     ___fladd@bexp:
  1294                           
  1295                           ; 1 bytes @ 0x4C
  1296  006C                     	ds	1
  1297  006D                     ___fladd@grs:
  1298                           
  1299                           ; 1 bytes @ 0x4D
  1300  006D                     	ds	1
  1301  006E                     ___fltol@sign1:
  1302                           
  1303                           ; 1 bytes @ 0x4E
  1304  006E                     	ds	1
  1305  006F                     ___fltol@exp1:
  1306                           
  1307                           ; 1 bytes @ 0x4F
  1308  006F                     	ds	1
  1309  0070                     ??_map:
  1310                           
  1311                           	psect	maintext
  1312  0C64                     __pmaintext:	
  1313                           ; 1 bytes @ 0x50
  1314 ;;
  1315 ;;Main: autosize = 0, tempsize = 5, incstack = 0, save=0
  1316 ;;
  1317 ;; *************** function _main *****************
  1318 ;; Defined at:
  1319 ;;		line 101 in file "main.c"
  1320 ;; Parameters:    Size  Location     Type
  1321 ;;		None
  1322 ;; Auto vars:     Size  Location     Type
  1323 ;;  a               2    0        unsigned int 
  1324 ;; Return value:  Size  Location     Type
  1325 ;;                  1    wreg      void 
  1326 ;; Registers used:
  1327 ;;		wreg, fsr0l, fsr0h, status,2, status,0, btemp+1, pclath, cstack
  1328 ;; Tracked objects:
  1329 ;;		On entry : B00/0
  1330 ;;		On exit  : 0/0
  1331 ;;		Unchanged: 0/0
  1332 ;; Data sizes:     COMMON   BANK0   BANK1   BANK3   BANK2
  1333 ;;      Params:         0       0       0       0       0
  1334 ;;      Locals:         0       0       0       0       0
  1335 ;;      Temps:          0       0       5       0       0
  1336 ;;      Totals:         0       0       5       0       0
  1337 ;;Total ram usage:        5 bytes
  1338 ;; Hardware stack levels required when called: 5
  1339 ;; This function calls:
  1340 ;;		_Lcd_Clear
  1341 ;;		_Lcd_Init
  1342 ;;		_Lcd_Set_Cursor
  1343 ;;		_Lcd_Write_String
  1344 ;;		___bmul
  1345 ;;		___lwdiv
  1346 ;;		_adc_start
  1347 ;;		_map
  1348 ;;		_setup
  1349 ;;		_sprintf
  1350 ;; This function is called by:
  1351 ;;		Startup code after reset
  1352 ;; This function uses a non-reentrant model
  1353 ;;
  1354                           
  1355  0C64                     _main:	
  1356                           ;psect for function _main
  1357                           
  1358  0C64                     l3293:	
  1359                           ;incstack = 0
  1360                           ; Regs used in _main: [wreg-fsr0h+status,2+status,0+btemp+1+pclath+cstack]
  1361                           
  1362                           
  1363                           ;main.c: 102:     setup();
  1364  0C64  160A  118A  2678  120A  158A  	fcall	_setup
  1365  0C69                     l3295:
  1366                           
  1367                           ;main.c: 103:     unsigned int a;;main.c: 104:     Lcd_Init();
  1368  0C69  120A  158A  218E  120A  158A  	fcall	_Lcd_Init
  1369  0C6E                     l3297:
  1370                           
  1371                           ;main.c: 105:     Lcd_Clear();
  1372  0C6E  160A  118A  2610  120A  158A  	fcall	_Lcd_Clear
  1373  0C73                     l3299:
  1374                           
  1375                           ;main.c: 106:     Lcd_Set_Cursor(1,1);
  1376  0C73  1283               	bcf	3,5	;RP0=0, select bank0
  1377  0C74  1303               	bcf	3,6	;RP1=0, select bank0
  1378  0C75  01A4               	clrf	Lcd_Set_Cursor@b
  1379  0C76  0AA4               	incf	Lcd_Set_Cursor@b,f
  1380  0C77  3001               	movlw	1
  1381  0C78  120A  158A  2136  120A  158A  	fcall	_Lcd_Set_Cursor
  1382  0C7D                     l3301:
  1383                           
  1384                           ;main.c: 107:     Lcd_Write_String(" CRISTIAN CATU ");
  1385  0C7D  3054               	movlw	(low ((STR_1-__stringbase)| (0+32768)))& (0+255)
  1386  0C7E  1283               	bcf	3,5	;RP0=0, select bank0
  1387  0C7F  1303               	bcf	3,6	;RP1=0, select bank0
  1388  0C80  00A5               	movwf	Lcd_Write_String@a
  1389  0C81  3080               	movlw	128
  1390  0C82  00A6               	movwf	Lcd_Write_String@a+1
  1391  0C83  160A  118A  2729  120A  158A  	fcall	_Lcd_Write_String
  1392  0C88                     l3303:
  1393                           
  1394                           ;main.c: 108:     Lcd_Set_Cursor(2,1);
  1395  0C88  1283               	bcf	3,5	;RP0=0, select bank0
  1396  0C89  1303               	bcf	3,6	;RP1=0, select bank0
  1397  0C8A  01A4               	clrf	Lcd_Set_Cursor@b
  1398  0C8B  0AA4               	incf	Lcd_Set_Cursor@b,f
  1399  0C8C  3002               	movlw	2
  1400  0C8D  120A  158A  2136  120A  158A  	fcall	_Lcd_Set_Cursor
  1401  0C92                     l3305:
  1402                           
  1403                           ;main.c: 109:     Lcd_Write_String(" 20295");
  1404  0C92  3064               	movlw	(low ((STR_2-__stringbase)| (0+32768)))& (0+255)
  1405  0C93  1283               	bcf	3,5	;RP0=0, select bank0
  1406  0C94  1303               	bcf	3,6	;RP1=0, select bank0
  1407  0C95  00A5               	movwf	Lcd_Write_String@a
  1408  0C96  3080               	movlw	128
  1409  0C97  00A6               	movwf	Lcd_Write_String@a+1
  1410  0C98  160A  118A  2729  120A  158A  	fcall	_Lcd_Write_String
  1411  0C9D                     l3307:
  1412                           
  1413                           ;main.c: 110:     _delay((unsigned long)((2000)*(4000000/4000.0)));
  1414  0C9D  300B               	movlw	11
  1415  0C9E  1683               	bsf	3,5	;RP0=1, select bank1
  1416  0C9F  1303               	bcf	3,6	;RP1=0, select bank1
  1417  0CA0  00BA               	movwf	(??_main^(0+128)+2)
  1418  0CA1  3026               	movlw	38
  1419  0CA2  00B9               	movwf	(??_main^(0+128)+1)
  1420  0CA3  305D               	movlw	93
  1421  0CA4  00B8               	movwf	??_main^(0+128)
  1422  0CA5                     u3907:
  1423  0CA5  0BB8               	decfsz	??_main^(0+128),f
  1424  0CA6  2CA5               	goto	u3907
  1425  0CA7  0BB9               	decfsz	(??_main^(0+128)+1),f
  1426  0CA8  2CA5               	goto	u3907
  1427  0CA9  0BBA               	decfsz	(??_main^(0+128)+2),f
  1428  0CAA  2CA5               	goto	u3907
  1429  0CAB                     l3309:
  1430                           
  1431                           ;main.c: 112:         if (canal_ADC == 0){
  1432  0CAB  0879               	movf	_canal_ADC,w
  1433  0CAC  1D03               	btfss	3,2
  1434  0CAD  2CAF               	goto	u3861
  1435  0CAE  2CB0               	goto	u3860
  1436  0CAF                     u3861:
  1437  0CAF  2D06               	goto	l3321
  1438  0CB0                     u3860:
  1439  0CB0                     l3311:
  1440                           
  1441                           ;main.c: 113:             adc_start(canal_ADC);
  1442  0CB0  0879               	movf	_canal_ADC,w
  1443  0CB1  160A  118A  2654  120A  158A  	fcall	_adc_start
  1444  0CB6                     l3313:
  1445                           
  1446                           ;main.c: 114:             canal_ADC = 1;
  1447  0CB6  01F9               	clrf	_canal_ADC
  1448  0CB7  0AF9               	incf	_canal_ADC,f
  1449  0CB8                     l3315:
  1450                           
  1451                           ;main.c: 115:             VOLTAJE_0 = map(VAL_POT_0, 0, 255, 0, 500);
  1452  0CB8  1683               	bsf	3,5	;RP0=1, select bank1
  1453  0CB9  1303               	bcf	3,6	;RP1=0, select bank1
  1454  0CBA  01B1               	clrf	map@x0^(0+128)
  1455  0CBB  30FF               	movlw	255
  1456  0CBC  00B8               	movwf	??_main^(0+128)
  1457  0CBD  0838               	movf	??_main^(0+128),w
  1458  0CBE  00B2               	movwf	map@x1^(0+128)
  1459  0CBF  3000               	movlw	0
  1460  0CC0  00B3               	movwf	map@y0^(0+128)
  1461  0CC1  00B4               	movwf	(map@y0+1)^(0+128)
  1462  0CC2  30F4               	movlw	244
  1463  0CC3  00B5               	movwf	map@y1^(0+128)
  1464  0CC4  3001               	movlw	1
  1465  0CC5  00B6               	movwf	(map@y1^(0+128)+1)
  1466  0CC6  0846               	movf	_VAL_POT_0^(0+128),w
  1467  0CC7  120A  158A  239E  120A  158A  	fcall	_map
  1468  0CCC  1683               	bsf	3,5	;RP0=1, select bank1
  1469  0CCD  1303               	bcf	3,6	;RP1=0, select bank1
  1470  0CCE  0832               	movf	(?_map+1)^(0+128),w
  1471  0CCF  00C0               	movwf	(_VOLTAJE_0+1)^(0+128)
  1472  0CD0  0831               	movf	?_map^(0+128),w
  1473  0CD1  00BF               	movwf	_VOLTAJE_0^(0+128)
  1474  0CD2                     l3317:
  1475                           
  1476                           ;main.c: 116:             init_POT_0 = VOLTAJE_0/100;
  1477  0CD2  3064               	movlw	100
  1478  0CD3  1283               	bcf	3,5	;RP0=0, select bank0
  1479  0CD4  1303               	bcf	3,6	;RP1=0, select bank0
  1480  0CD5  00A0               	movwf	___lwdiv@divisor
  1481  0CD6  3000               	movlw	0
  1482  0CD7  00A1               	movwf	___lwdiv@divisor+1
  1483  0CD8  1683               	bsf	3,5	;RP0=1, select bank1
  1484  0CD9  1303               	bcf	3,6	;RP1=0, select bank1
  1485  0CDA  0840               	movf	(_VOLTAJE_0+1)^(0+128),w
  1486  0CDB  1283               	bcf	3,5	;RP0=0, select bank0
  1487  0CDC  1303               	bcf	3,6	;RP1=0, select bank0
  1488  0CDD  00A3               	movwf	___lwdiv@dividend+1
  1489  0CDE  1683               	bsf	3,5	;RP0=1, select bank1
  1490  0CDF  1303               	bcf	3,6	;RP1=0, select bank1
  1491  0CE0  083F               	movf	_VOLTAJE_0^(0+128),w
  1492  0CE1  1283               	bcf	3,5	;RP0=0, select bank0
  1493  0CE2  1303               	bcf	3,6	;RP1=0, select bank0
  1494  0CE3  00A2               	movwf	___lwdiv@dividend
  1495  0CE4  160A  118A  276F  120A  158A  	fcall	___lwdiv
  1496  0CE9  1283               	bcf	3,5	;RP0=0, select bank0
  1497  0CEA  1303               	bcf	3,6	;RP1=0, select bank0
  1498  0CEB  0820               	movf	?___lwdiv,w
  1499  0CEC  1683               	bsf	3,5	;RP0=1, select bank1
  1500  0CED  1303               	bcf	3,6	;RP1=0, select bank1
  1501  0CEE  00B8               	movwf	??_main^(0+128)
  1502  0CEF  0838               	movf	??_main^(0+128),w
  1503  0CF0  00C4               	movwf	_init_POT_0^(0+128)
  1504  0CF1                     l3319:
  1505                           
  1506                           ;main.c: 117:             dec_POT_0 = VOLTAJE_0-init_POT_0*100;
  1507  0CF1  309C               	movlw	156
  1508  0CF2  00B8               	movwf	??_main^(0+128)
  1509  0CF3  0838               	movf	??_main^(0+128),w
  1510  0CF4  1283               	bcf	3,5	;RP0=0, select bank0
  1511  0CF5  1303               	bcf	3,6	;RP1=0, select bank0
  1512  0CF6  00A0               	movwf	___bmul@multiplicand
  1513  0CF7  1683               	bsf	3,5	;RP0=1, select bank1
  1514  0CF8  1303               	bcf	3,6	;RP1=0, select bank1
  1515  0CF9  0844               	movf	_init_POT_0^(0+128),w
  1516  0CFA  160A  118A  261D  120A  158A  	fcall	___bmul
  1517  0CFF  1683               	bsf	3,5	;RP0=1, select bank1
  1518  0D00  1303               	bcf	3,6	;RP1=0, select bank1
  1519  0D01  073F               	addwf	_VOLTAJE_0^(0+128),w
  1520  0D02  00B9               	movwf	(??_main+1)^(0+128)
  1521  0D03  0839               	movf	(??_main+1)^(0+128),w
  1522  0D04  00C3               	movwf	_dec_POT_0^(0+128)
  1523                           
  1524                           ;main.c: 118:         }
  1525  0D05  2D5F               	goto	l3333
  1526  0D06                     l3321:
  1527  0D06  0379               	decf	_canal_ADC,w
  1528  0D07  1D03               	btfss	3,2
  1529  0D08  2D0A               	goto	u3871
  1530  0D09  2D0B               	goto	u3870
  1531  0D0A                     u3871:
  1532  0D0A  2D5F               	goto	l3333
  1533  0D0B                     u3870:
  1534  0D0B                     l3323:
  1535                           
  1536                           ;main.c: 120:             adc_start(canal_ADC);
  1537  0D0B  0879               	movf	_canal_ADC,w
  1538  0D0C  160A  118A  2654  120A  158A  	fcall	_adc_start
  1539  0D11                     l3325:
  1540                           
  1541                           ;main.c: 121:             canal_ADC = 0;
  1542  0D11  01F9               	clrf	_canal_ADC
  1543  0D12                     l3327:
  1544                           
  1545                           ;main.c: 122:             VOLTAJE_1 = map(VAL_POT_1, 0, 255, 0, 500);
  1546  0D12  1683               	bsf	3,5	;RP0=1, select bank1
  1547  0D13  1303               	bcf	3,6	;RP1=0, select bank1
  1548  0D14  01B1               	clrf	map@x0^(0+128)
  1549  0D15  30FF               	movlw	255
  1550  0D16  00B8               	movwf	??_main^(0+128)
  1551  0D17  0838               	movf	??_main^(0+128),w
  1552  0D18  00B2               	movwf	map@x1^(0+128)
  1553  0D19  3000               	movlw	0
  1554  0D1A  00B3               	movwf	map@y0^(0+128)
  1555  0D1B  00B4               	movwf	(map@y0+1)^(0+128)
  1556  0D1C  30F4               	movlw	244
  1557  0D1D  00B5               	movwf	map@y1^(0+128)
  1558  0D1E  3001               	movlw	1
  1559  0D1F  00B6               	movwf	(map@y1^(0+128)+1)
  1560  0D20  0845               	movf	_VAL_POT_1^(0+128),w
  1561  0D21  120A  158A  239E  120A  158A  	fcall	_map
  1562  0D26  1683               	bsf	3,5	;RP0=1, select bank1
  1563  0D27  1303               	bcf	3,6	;RP1=0, select bank1
  1564  0D28  0832               	movf	(?_map+1)^(0+128),w
  1565  0D29  00BE               	movwf	(_VOLTAJE_1+1)^(0+128)
  1566  0D2A  0831               	movf	?_map^(0+128),w
  1567  0D2B  00BD               	movwf	_VOLTAJE_1^(0+128)
  1568  0D2C                     l3329:
  1569                           
  1570                           ;main.c: 123:             init_POT_1 = VOLTAJE_1/100;
  1571  0D2C  3064               	movlw	100
  1572  0D2D  1283               	bcf	3,5	;RP0=0, select bank0
  1573  0D2E  1303               	bcf	3,6	;RP1=0, select bank0
  1574  0D2F  00A0               	movwf	___lwdiv@divisor
  1575  0D30  3000               	movlw	0
  1576  0D31  00A1               	movwf	___lwdiv@divisor+1
  1577  0D32  1683               	bsf	3,5	;RP0=1, select bank1
  1578  0D33  1303               	bcf	3,6	;RP1=0, select bank1
  1579  0D34  083E               	movf	(_VOLTAJE_1+1)^(0+128),w
  1580  0D35  1283               	bcf	3,5	;RP0=0, select bank0
  1581  0D36  1303               	bcf	3,6	;RP1=0, select bank0
  1582  0D37  00A3               	movwf	___lwdiv@dividend+1
  1583  0D38  1683               	bsf	3,5	;RP0=1, select bank1
  1584  0D39  1303               	bcf	3,6	;RP1=0, select bank1
  1585  0D3A  083D               	movf	_VOLTAJE_1^(0+128),w
  1586  0D3B  1283               	bcf	3,5	;RP0=0, select bank0
  1587  0D3C  1303               	bcf	3,6	;RP1=0, select bank0
  1588  0D3D  00A2               	movwf	___lwdiv@dividend
  1589  0D3E  160A  118A  276F  120A  158A  	fcall	___lwdiv
  1590  0D43  1283               	bcf	3,5	;RP0=0, select bank0
  1591  0D44  1303               	bcf	3,6	;RP1=0, select bank0
  1592  0D45  0820               	movf	?___lwdiv,w
  1593  0D46  1683               	bsf	3,5	;RP0=1, select bank1
  1594  0D47  1303               	bcf	3,6	;RP1=0, select bank1
  1595  0D48  00B8               	movwf	??_main^(0+128)
  1596  0D49  0838               	movf	??_main^(0+128),w
  1597  0D4A  00C2               	movwf	_init_POT_1^(0+128)
  1598  0D4B                     l3331:
  1599                           
  1600                           ;main.c: 124:             dec_POT_1 = VOLTAJE_1-init_POT_1*100;
  1601  0D4B  309C               	movlw	156
  1602  0D4C  00B8               	movwf	??_main^(0+128)
  1603  0D4D  0838               	movf	??_main^(0+128),w
  1604  0D4E  1283               	bcf	3,5	;RP0=0, select bank0
  1605  0D4F  1303               	bcf	3,6	;RP1=0, select bank0
  1606  0D50  00A0               	movwf	___bmul@multiplicand
  1607  0D51  1683               	bsf	3,5	;RP0=1, select bank1
  1608  0D52  1303               	bcf	3,6	;RP1=0, select bank1
  1609  0D53  0842               	movf	_init_POT_1^(0+128),w
  1610  0D54  160A  118A  261D  120A  158A  	fcall	___bmul
  1611  0D59  1683               	bsf	3,5	;RP0=1, select bank1
  1612  0D5A  1303               	bcf	3,6	;RP1=0, select bank1
  1613  0D5B  073D               	addwf	_VOLTAJE_1^(0+128),w
  1614  0D5C  00B9               	movwf	(??_main+1)^(0+128)
  1615  0D5D  0839               	movf	(??_main+1)^(0+128),w
  1616  0D5E  00C1               	movwf	_dec_POT_1^(0+128)
  1617  0D5F                     l3333:
  1618                           
  1619                           ;main.c: 126:         if(bandera == 1){
  1620  0D5F  0378               	decf	_bandera,w
  1621  0D60  1D03               	btfss	3,2
  1622  0D61  2D63               	goto	u3881
  1623  0D62  2D64               	goto	u3880
  1624  0D63                     u3881:
  1625  0D63  2DC5               	goto	l3345
  1626  0D64                     u3880:
  1627  0D64                     l3335:
  1628                           
  1629                           ;main.c: 127:             Lcd_Set_Cursor(1,1);
  1630  0D64  1283               	bcf	3,5	;RP0=0, select bank0
  1631  0D65  1303               	bcf	3,6	;RP1=0, select bank0
  1632  0D66  01A4               	clrf	Lcd_Set_Cursor@b
  1633  0D67  0AA4               	incf	Lcd_Set_Cursor@b,f
  1634  0D68  3001               	movlw	1
  1635  0D69  120A  158A  2136  120A  158A  	fcall	_Lcd_Set_Cursor
  1636  0D6E                     l3337:
  1637                           
  1638                           ;main.c: 128:             Lcd_Write_String("      POT1        ");
  1639  0D6E  300B               	movlw	(low ((STR_3-__stringbase)| (0+32768)))& (0+255)
  1640  0D6F  1283               	bcf	3,5	;RP0=0, select bank0
  1641  0D70  1303               	bcf	3,6	;RP1=0, select bank0
  1642  0D71  00A5               	movwf	Lcd_Write_String@a
  1643  0D72  3080               	movlw	128
  1644  0D73  00A6               	movwf	Lcd_Write_String@a+1
  1645  0D74  160A  118A  2729  120A  158A  	fcall	_Lcd_Write_String
  1646  0D79                     l3339:
  1647                           
  1648                           ;main.c: 129:             Lcd_Set_Cursor(2,1);
  1649  0D79  1283               	bcf	3,5	;RP0=0, select bank0
  1650  0D7A  1303               	bcf	3,6	;RP1=0, select bank0
  1651  0D7B  01A4               	clrf	Lcd_Set_Cursor@b
  1652  0D7C  0AA4               	incf	Lcd_Set_Cursor@b,f
  1653  0D7D  3002               	movlw	2
  1654  0D7E  120A  158A  2136  120A  158A  	fcall	_Lcd_Set_Cursor
  1655                           
  1656                           ;main.c: 130:             sprintf(s, "      %d.%dV     ", init_POT_0, dec_POT_0);
  1657  0D83  3031               	movlw	(low ((STR_4-__stringbase)| (0+32768)))& (0+255)
  1658  0D84  1683               	bsf	3,5	;RP0=1, select bank1
  1659  0D85  1303               	bcf	3,6	;RP1=0, select bank1
  1660  0D86  00B8               	movwf	??_main^(0+128)
  1661  0D87  0838               	movf	??_main^(0+128),w
  1662  0D88  1283               	bcf	3,5	;RP0=0, select bank0
  1663  0D89  1303               	bcf	3,6	;RP1=0, select bank0
  1664  0D8A  00AE               	movwf	sprintf@f
  1665  0D8B  1683               	bsf	3,5	;RP0=1, select bank1
  1666  0D8C  1303               	bcf	3,6	;RP1=0, select bank1
  1667  0D8D  0844               	movf	_init_POT_0^(0+128),w
  1668  0D8E  00B9               	movwf	(??_main+1)^(0+128)
  1669  0D8F  01BA               	clrf	((??_main+1)^(0+128)+1)
  1670  0D90  0839               	movf	(??_main+1)^(0+128),w
  1671  0D91  1283               	bcf	3,5	;RP0=0, select bank0
  1672  0D92  1303               	bcf	3,6	;RP1=0, select bank0
  1673  0D93  00AF               	movwf	?_sprintf+1
  1674  0D94  1683               	bsf	3,5	;RP0=1, select bank1
  1675  0D95  1303               	bcf	3,6	;RP1=0, select bank1
  1676  0D96  083A               	movf	(??_main+2)^(0+128),w
  1677  0D97  1283               	bcf	3,5	;RP0=0, select bank0
  1678  0D98  1303               	bcf	3,6	;RP1=0, select bank0
  1679  0D99  00B0               	movwf	?_sprintf+2
  1680  0D9A  1683               	bsf	3,5	;RP0=1, select bank1
  1681  0D9B  1303               	bcf	3,6	;RP1=0, select bank1
  1682  0D9C  0843               	movf	_dec_POT_0^(0+128),w
  1683  0D9D  00BB               	movwf	(??_main+3)^(0+128)
  1684  0D9E  01BC               	clrf	((??_main+3)^(0+128)+1)
  1685  0D9F  083B               	movf	(??_main+3)^(0+128),w
  1686  0DA0  1283               	bcf	3,5	;RP0=0, select bank0
  1687  0DA1  1303               	bcf	3,6	;RP1=0, select bank0
  1688  0DA2  00B1               	movwf	?_sprintf+3
  1689  0DA3  1683               	bsf	3,5	;RP0=1, select bank1
  1690  0DA4  1303               	bcf	3,6	;RP1=0, select bank1
  1691  0DA5  083C               	movf	(??_main+4)^(0+128),w
  1692  0DA6  1283               	bcf	3,5	;RP0=0, select bank0
  1693  0DA7  1303               	bcf	3,6	;RP1=0, select bank0
  1694  0DA8  00B2               	movwf	?_sprintf+4
  1695  0DA9  30C7               	movlw	(low (_s| 0))& (0+255)
  1696  0DAA  120A  118A  26EB  120A  158A  	fcall	_sprintf
  1697  0DAF                     l3341:
  1698                           
  1699                           ;main.c: 131:             Lcd_Set_Cursor(2,1);
  1700  0DAF  1283               	bcf	3,5	;RP0=0, select bank0
  1701  0DB0  1303               	bcf	3,6	;RP1=0, select bank0
  1702  0DB1  01A4               	clrf	Lcd_Set_Cursor@b
  1703  0DB2  0AA4               	incf	Lcd_Set_Cursor@b,f
  1704  0DB3  3002               	movlw	2
  1705  0DB4  120A  158A  2136  120A  158A  	fcall	_Lcd_Set_Cursor
  1706  0DB9                     l3343:
  1707                           
  1708                           ;main.c: 132:             Lcd_Write_String(s);
  1709  0DB9  30C7               	movlw	(low (_s| 0))& (0+255)
  1710  0DBA  1283               	bcf	3,5	;RP0=0, select bank0
  1711  0DBB  1303               	bcf	3,6	;RP1=0, select bank0
  1712  0DBC  00A5               	movwf	Lcd_Write_String@a
  1713  0DBD  3000               	movlw	0
  1714  0DBE  00A6               	movwf	Lcd_Write_String@a+1
  1715  0DBF  160A  118A  2729  120A  158A  	fcall	_Lcd_Write_String
  1716                           
  1717                           ;main.c: 133:         }
  1718  0DC4  2CAB               	goto	l3309
  1719  0DC5                     l3345:
  1720  0DC5  0878               	movf	_bandera,w
  1721  0DC6  1D03               	btfss	3,2
  1722  0DC7  2DC9               	goto	u3891
  1723  0DC8  2DCA               	goto	u3890
  1724  0DC9                     u3891:
  1725  0DC9  2CAB               	goto	l3309
  1726  0DCA                     u3890:
  1727  0DCA                     l3347:
  1728                           
  1729                           ;main.c: 135:             Lcd_Set_Cursor(1,1);
  1730  0DCA  1283               	bcf	3,5	;RP0=0, select bank0
  1731  0DCB  1303               	bcf	3,6	;RP1=0, select bank0
  1732  0DCC  01A4               	clrf	Lcd_Set_Cursor@b
  1733  0DCD  0AA4               	incf	Lcd_Set_Cursor@b,f
  1734  0DCE  3001               	movlw	1
  1735  0DCF  120A  158A  2136  120A  158A  	fcall	_Lcd_Set_Cursor
  1736  0DD4                     l3349:
  1737                           
  1738                           ;main.c: 136:             Lcd_Write_String("      POT2      ");
  1739  0DD4  3043               	movlw	(low ((STR_5-__stringbase)| (0+32768)))& (0+255)
  1740  0DD5  1283               	bcf	3,5	;RP0=0, select bank0
  1741  0DD6  1303               	bcf	3,6	;RP1=0, select bank0
  1742  0DD7  00A5               	movwf	Lcd_Write_String@a
  1743  0DD8  3080               	movlw	128
  1744  0DD9  00A6               	movwf	Lcd_Write_String@a+1
  1745  0DDA  160A  118A  2729  120A  158A  	fcall	_Lcd_Write_String
  1746  0DDF                     l3351:
  1747                           
  1748                           ;main.c: 137:             Lcd_Set_Cursor(2,1);
  1749  0DDF  1283               	bcf	3,5	;RP0=0, select bank0
  1750  0DE0  1303               	bcf	3,6	;RP1=0, select bank0
  1751  0DE1  01A4               	clrf	Lcd_Set_Cursor@b
  1752  0DE2  0AA4               	incf	Lcd_Set_Cursor@b,f
  1753  0DE3  3002               	movlw	2
  1754  0DE4  120A  158A  2136  120A  158A  	fcall	_Lcd_Set_Cursor
  1755                           
  1756                           ;main.c: 138:             sprintf(s, "      %d.%dV      ", init_POT_1, dec_POT_1);
  1757  0DE9  301E               	movlw	(low ((STR_6-__stringbase)| (0+32768)))& (0+255)
  1758  0DEA  1683               	bsf	3,5	;RP0=1, select bank1
  1759  0DEB  1303               	bcf	3,6	;RP1=0, select bank1
  1760  0DEC  00B8               	movwf	??_main^(0+128)
  1761  0DED  0838               	movf	??_main^(0+128),w
  1762  0DEE  1283               	bcf	3,5	;RP0=0, select bank0
  1763  0DEF  1303               	bcf	3,6	;RP1=0, select bank0
  1764  0DF0  00AE               	movwf	sprintf@f
  1765  0DF1  1683               	bsf	3,5	;RP0=1, select bank1
  1766  0DF2  1303               	bcf	3,6	;RP1=0, select bank1
  1767  0DF3  0842               	movf	_init_POT_1^(0+128),w
  1768  0DF4  00B9               	movwf	(??_main+1)^(0+128)
  1769  0DF5  01BA               	clrf	((??_main+1)^(0+128)+1)
  1770  0DF6  0839               	movf	(??_main+1)^(0+128),w
  1771  0DF7  1283               	bcf	3,5	;RP0=0, select bank0
  1772  0DF8  1303               	bcf	3,6	;RP1=0, select bank0
  1773  0DF9  00AF               	movwf	?_sprintf+1
  1774  0DFA  1683               	bsf	3,5	;RP0=1, select bank1
  1775  0DFB  1303               	bcf	3,6	;RP1=0, select bank1
  1776  0DFC  083A               	movf	(??_main+2)^(0+128),w
  1777  0DFD  1283               	bcf	3,5	;RP0=0, select bank0
  1778  0DFE  1303               	bcf	3,6	;RP1=0, select bank0
  1779  0DFF  00B0               	movwf	?_sprintf+2
  1780  0E00  1683               	bsf	3,5	;RP0=1, select bank1
  1781  0E01  1303               	bcf	3,6	;RP1=0, select bank1
  1782  0E02  0841               	movf	_dec_POT_1^(0+128),w
  1783  0E03  00BB               	movwf	(??_main+3)^(0+128)
  1784  0E04  01BC               	clrf	((??_main+3)^(0+128)+1)
  1785  0E05  083B               	movf	(??_main+3)^(0+128),w
  1786  0E06  1283               	bcf	3,5	;RP0=0, select bank0
  1787  0E07  1303               	bcf	3,6	;RP1=0, select bank0
  1788  0E08  00B1               	movwf	?_sprintf+3
  1789  0E09  1683               	bsf	3,5	;RP0=1, select bank1
  1790  0E0A  1303               	bcf	3,6	;RP1=0, select bank1
  1791  0E0B  083C               	movf	(??_main+4)^(0+128),w
  1792  0E0C  1283               	bcf	3,5	;RP0=0, select bank0
  1793  0E0D  1303               	bcf	3,6	;RP1=0, select bank0
  1794  0E0E  00B2               	movwf	?_sprintf+4
  1795  0E0F  30C7               	movlw	(low (_s| 0))& (0+255)
  1796  0E10  120A  118A  26EB  120A  158A  	fcall	_sprintf
  1797  0E15                     l3353:
  1798                           
  1799                           ;main.c: 139:             Lcd_Set_Cursor(2,1);
  1800  0E15  1283               	bcf	3,5	;RP0=0, select bank0
  1801  0E16  1303               	bcf	3,6	;RP1=0, select bank0
  1802  0E17  01A4               	clrf	Lcd_Set_Cursor@b
  1803  0E18  0AA4               	incf	Lcd_Set_Cursor@b,f
  1804  0E19  3002               	movlw	2
  1805  0E1A  120A  158A  2136  120A  158A  	fcall	_Lcd_Set_Cursor
  1806  0E1F  2DB9               	goto	l3343
  1807  0E20  120A  118A  280C   	ljmp	start
  1808  0E23                     __end_of_main:
  1809                           
  1810                           	psect	text1
  1811  06EB                     __ptext1:	
  1812 ;; *************** function _sprintf *****************
  1813 ;; Defined at:
  1814 ;;		line 505 in file "C:\Program Files\Microchip\xc8\v2.35\pic\sources\c90\common\doprnt.c"
  1815 ;; Parameters:    Size  Location     Type
  1816 ;;  sp              1    wreg     PTR unsigned char 
  1817 ;;		 -> s(1), 
  1818 ;;  f               1   14[BANK0 ] PTR const unsigned char 
  1819 ;;		 -> STR_6(19), STR_4(18), 
  1820 ;; Auto vars:     Size  Location     Type
  1821 ;;  sp              1   27[BANK0 ] PTR unsigned char 
  1822 ;;		 -> s(1), 
  1823 ;;  tmpval          4    0        struct .
  1824 ;;  val             2   25[BANK0 ] unsigned int 
  1825 ;;  cp              2    0        PTR const unsigned char 
  1826 ;;  len             2    0        unsigned int 
  1827 ;;  c               1   28[BANK0 ] unsigned char 
  1828 ;;  prec            1   24[BANK0 ] char 
  1829 ;;  flag            1   23[BANK0 ] unsigned char 
  1830 ;;  ap              1   22[BANK0 ] PTR void [1]
  1831 ;;		 -> ?_sprintf(2), 
  1832 ;; Return value:  Size  Location     Type
  1833 ;;                  2   14[BANK0 ] int 
  1834 ;; Registers used:
  1835 ;;		wreg, fsr0l, fsr0h, status,2, status,0, btemp+1, pclath, cstack
  1836 ;; Tracked objects:
  1837 ;;		On entry : 0/0
  1838 ;;		On exit  : 0/0
  1839 ;;		Unchanged: 0/0
  1840 ;; Data sizes:     COMMON   BANK0   BANK1   BANK3   BANK2
  1841 ;;      Params:         0       5       0       0       0
  1842 ;;      Locals:         0       7       0       0       0
  1843 ;;      Temps:          0       3       0       0       0
  1844 ;;      Totals:         0      15       0       0       0
  1845 ;;Total ram usage:       15 bytes
  1846 ;; Hardware stack levels used: 1
  1847 ;; Hardware stack levels required when called: 3
  1848 ;; This function calls:
  1849 ;;		___lwdiv
  1850 ;;		___lwmod
  1851 ;; This function is called by:
  1852 ;;		_main
  1853 ;; This function uses a non-reentrant model
  1854 ;;
  1855                           
  1856  06EB                     _sprintf:	
  1857                           ;psect for function _sprintf
  1858                           
  1859                           
  1860                           ;incstack = 0
  1861                           ; Regs used in _sprintf: [wreg-fsr0h+status,2+status,0+btemp+1+pclath+cstack]
  1862                           ;sprintf@sp stored from wreg
  1863  06EB  1283               	bcf	3,5	;RP0=0, select bank0
  1864  06EC  1303               	bcf	3,6	;RP1=0, select bank0
  1865  06ED  00BB               	movwf	sprintf@sp
  1866  06EE                     l2859:
  1867                           
  1868                           ;C:\Program Files\Microchip\xc8\v2.35\pic\sources\c90\common\doprnt.c: 505: sprintf(char
      +                           * sp, const char * f, ...);C:\Program Files\Microchip\xc8\v2.35\pic\sources\c90\common\
      +                          doprnt.c: 506: {;C:\Program Files\Microchip\xc8\v2.35\pic\sources\c90\common\doprnt.c: 5
      +                          07:  va_list ap;;C:\Program Files\Microchip\xc8\v2.35\pic\sources\c90\common\doprnt.c: 5
      +                          12:  char c;;C:\Program Files\Microchip\xc8\v2.35\pic\sources\c90\common\doprnt.c: 521: 
      +                           signed char prec;;C:\Program Files\Microchip\xc8\v2.35\pic\sources\c90\common\doprnt.c:
      +                           525:  unsigned char flag;
  1869  06EE  302F               	movlw	(low ((?_sprintf| 0+1)))& (0+255)
  1870  06EF  00B3               	movwf	??_sprintf
  1871  06F0  0833               	movf	??_sprintf,w
  1872  06F1  00B6               	movwf	sprintf@ap
  1873                           
  1874                           ;C:\Program Files\Microchip\xc8\v2.35\pic\sources\c90\common\doprnt.c: 553:  while((c = 
      +                          *f++)) {
  1875  06F2  2FBE               	goto	l2911
  1876  06F3                     l2861:
  1877                           
  1878                           ;C:\Program Files\Microchip\xc8\v2.35\pic\sources\c90\common\doprnt.c: 555:   if(c != '%
      +                          ')
  1879  06F3  3025               	movlw	37
  1880  06F4  063C               	xorwf	sprintf@c,w
  1881  06F5  1903               	btfsc	3,2
  1882  06F6  2EF8               	goto	u3541
  1883  06F7  2EF9               	goto	u3540
  1884  06F8                     u3541:
  1885  06F8  2F05               	goto	l2867
  1886  06F9                     u3540:
  1887  06F9                     l2863:
  1888                           
  1889                           ;C:\Program Files\Microchip\xc8\v2.35\pic\sources\c90\common\doprnt.c: 557:   {;C:\Progr
      +                          am Files\Microchip\xc8\v2.35\pic\sources\c90\common\doprnt.c: 558:    ((*sp++ = (c)));
  1890  06F9  083C               	movf	sprintf@c,w
  1891  06FA  00B3               	movwf	??_sprintf
  1892  06FB  083B               	movf	sprintf@sp,w
  1893  06FC  0084               	movwf	4
  1894  06FD  0833               	movf	??_sprintf,w
  1895  06FE  1383               	bcf	3,7	;select IRP bank0
  1896  06FF  0080               	movwf	0
  1897  0700                     l2865:
  1898  0700  3001               	movlw	1
  1899  0701  00B3               	movwf	??_sprintf
  1900  0702  0833               	movf	??_sprintf,w
  1901  0703  07BB               	addwf	sprintf@sp,f
  1902                           
  1903                           ;C:\Program Files\Microchip\xc8\v2.35\pic\sources\c90\common\doprnt.c: 559:    continue;
  1904  0704  2FBE               	goto	l2911
  1905  0705                     l2867:
  1906                           
  1907                           ;C:\Program Files\Microchip\xc8\v2.35\pic\sources\c90\common\doprnt.c: 565:   flag = 0;
  1908  0705  01B7               	clrf	sprintf@flag
  1909  0706                     l2871:	
  1910                           ;C:\Program Files\Microchip\xc8\v2.35\pic\sources\c90\common\doprnt.c: 661:   switch(c =
      +                           *f++) {
  1911                           
  1912  0706  3001               	movlw	1
  1913  0707  07AE               	addwf	sprintf@f,f
  1914  0708  30FF               	movlw	-1
  1915  0709  072E               	addwf	sprintf@f,w
  1916  070A  0084               	movwf	4
  1917  070B  120A  158A  200A  120A  118A  	fcall	stringdir
  1918  0710  00BC               	movwf	sprintf@c
  1919  0711  00B3               	movwf	??_sprintf
  1920  0712  01B4               	clrf	??_sprintf+1
  1921                           
  1922                           ; Switch on 2 bytes has been partitioned into a top level switch of size 1, and 1 sub-sw
      +                          itches
  1923                           ; Switch size 1, requested type "simple"
  1924                           ; Number of cases is 1, Range of values is 0 to 0
  1925                           ; switch strategies available:
  1926                           ; Name         Instructions Cycles
  1927                           ; simple_byte            4     3 (average)
  1928                           ; direct_byte           11     8 (fixed)
  1929                           ; jumptable            260     6 (fixed)
  1930                           ;	Chosen strategy is simple_byte
  1931  0713  0834               	movf	??_sprintf+1,w
  1932  0714  3A00               	xorlw	0	; case 0
  1933  0715  1903               	skipnz
  1934  0716  2F18               	goto	l3467
  1935  0717  2FBE               	goto	l2911
  1936  0718                     l3467:
  1937                           
  1938                           ; Switch size 1, requested type "simple"
  1939                           ; Number of cases is 3, Range of values is 0 to 105
  1940                           ; switch strategies available:
  1941                           ; Name         Instructions Cycles
  1942                           ; simple_byte           10     6 (average)
  1943                           ; jumptable            260     6 (fixed)
  1944                           ;	Chosen strategy is simple_byte
  1945  0718  0833               	movf	??_sprintf,w
  1946  0719  3A00               	xorlw	0	; case 0
  1947  071A  1903               	skipnz
  1948  071B  2FD0               	goto	l2913
  1949  071C  3A64               	xorlw	100	; case 100
  1950  071D  1903               	skipnz
  1951  071E  2F23               	goto	l2873
  1952  071F  3A0D               	xorlw	13	; case 105
  1953  0720  1903               	skipnz
  1954  0721  2F23               	goto	l2873
  1955  0722  2FBE               	goto	l2911
  1956  0723                     l2873:
  1957                           
  1958                           ;C:\Program Files\Microchip\xc8\v2.35\pic\sources\c90\common\doprnt.c: 1279:   {;C:\Prog
      +                          ram Files\Microchip\xc8\v2.35\pic\sources\c90\common\doprnt.c: 1285:     val = (unsigned
      +                           int)(*(int *)__va_arg((*(int **)ap), (int)0));
  1959  0723  0836               	movf	sprintf@ap,w
  1960  0724  0084               	movwf	4
  1961  0725  1383               	bcf	3,7	;select IRP bank0
  1962  0726  0800               	movf	0,w
  1963  0727  00B9               	movwf	sprintf@val
  1964  0728  0A84               	incf	4,f
  1965  0729  0800               	movf	0,w
  1966  072A  00BA               	movwf	sprintf@val+1
  1967  072B                     l2875:
  1968  072B  3002               	movlw	2
  1969  072C  00B3               	movwf	??_sprintf
  1970  072D  0833               	movf	??_sprintf,w
  1971  072E  07B6               	addwf	sprintf@ap,f
  1972  072F                     l2877:
  1973                           
  1974                           ;C:\Program Files\Microchip\xc8\v2.35\pic\sources\c90\common\doprnt.c: 1287:    if((int)
      +                          val < 0) {
  1975  072F  1FBA               	btfss	sprintf@val+1,7
  1976  0730  2F32               	goto	u3551
  1977  0731  2F33               	goto	u3550
  1978  0732                     u3551:
  1979  0732  2F3C               	goto	l2883
  1980  0733                     u3550:
  1981  0733                     l2879:
  1982                           
  1983                           ;C:\Program Files\Microchip\xc8\v2.35\pic\sources\c90\common\doprnt.c: 1288:     flag |=
      +                           0x03;
  1984  0733  3003               	movlw	3
  1985  0734  00B3               	movwf	??_sprintf
  1986  0735  0833               	movf	??_sprintf,w
  1987  0736  04B7               	iorwf	sprintf@flag,f
  1988  0737                     l2881:
  1989                           
  1990                           ;C:\Program Files\Microchip\xc8\v2.35\pic\sources\c90\common\doprnt.c: 1289:     val = -
      +                          val;
  1991  0737  09B9               	comf	sprintf@val,f
  1992  0738  09BA               	comf	sprintf@val+1,f
  1993  0739  0AB9               	incf	sprintf@val,f
  1994  073A  1903               	skipnz
  1995  073B  0ABA               	incf	sprintf@val+1,f
  1996  073C                     l2883:
  1997                           
  1998                           ;C:\Program Files\Microchip\xc8\v2.35\pic\sources\c90\common\doprnt.c: 1292:   };C:\Prog
      +                          ram Files\Microchip\xc8\v2.35\pic\sources\c90\common\doprnt.c: 1331:    for(c = 1 ; c !=
      +                           sizeof dpowers/sizeof dpowers[0] ; c++)
  1999  073C  01BC               	clrf	sprintf@c
  2000  073D  0ABC               	incf	sprintf@c,f
  2001  073E                     l2889:
  2002                           
  2003                           ;C:\Program Files\Microchip\xc8\v2.35\pic\sources\c90\common\doprnt.c: 1332:     if(val 
      +                          < dpowers[c])
  2004  073E  083C               	movf	sprintf@c,w
  2005  073F  00B3               	movwf	??_sprintf
  2006  0740  0733               	addwf	??_sprintf,w
  2007  0741  3E01               	addlw	low ((_dpowers-__stringbase)| (0+32768))
  2008  0742  0084               	movwf	4
  2009  0743  120A  158A  200A  120A  118A  	fcall	stringdir
  2010  0748  00B4               	movwf	??_sprintf+1
  2011  0749  120A  158A  200A  120A  118A  	fcall	stringdir
  2012  074E  00B5               	movwf	??_sprintf+2
  2013  074F  0835               	movf	??_sprintf+2,w
  2014  0750  023A               	subwf	sprintf@val+1,w
  2015  0751  1D03               	skipz
  2016  0752  2F55               	goto	u3565
  2017  0753  0834               	movf	??_sprintf+1,w
  2018  0754  0239               	subwf	sprintf@val,w
  2019  0755                     u3565:
  2020  0755  1803               	skipnc
  2021  0756  2F58               	goto	u3561
  2022  0757  2F59               	goto	u3560
  2023  0758                     u3561:
  2024  0758  2F5A               	goto	l2893
  2025  0759                     u3560:
  2026  0759  2F64               	goto	l2895
  2027  075A                     l2893:
  2028  075A  3001               	movlw	1
  2029  075B  00B3               	movwf	??_sprintf
  2030  075C  0833               	movf	??_sprintf,w
  2031  075D  07BC               	addwf	sprintf@c,f
  2032  075E  3005               	movlw	5
  2033  075F  063C               	xorwf	sprintf@c,w
  2034  0760  1D03               	btfss	3,2
  2035  0761  2F63               	goto	u3571
  2036  0762  2F64               	goto	u3570
  2037  0763                     u3571:
  2038  0763  2F3E               	goto	l2889
  2039  0764                     u3570:
  2040  0764                     l2895:
  2041                           
  2042                           ;C:\Program Files\Microchip\xc8\v2.35\pic\sources\c90\common\doprnt.c: 1448:   {;C:\Prog
      +                          ram Files\Microchip\xc8\v2.35\pic\sources\c90\common\doprnt.c: 1464:    if(flag & 0x03)
  2043  0764  0837               	movf	sprintf@flag,w
  2044  0765  3903               	andlw	3
  2045  0766  1903               	btfsc	3,2
  2046  0767  2F69               	goto	u3581
  2047  0768  2F6A               	goto	u3580
  2048  0769                     u3581:
  2049  0769  2F75               	goto	l2901
  2050  076A                     u3580:
  2051  076A                     l2897:
  2052                           
  2053                           ;C:\Program Files\Microchip\xc8\v2.35\pic\sources\c90\common\doprnt.c: 1465:     ((*sp++
      +                           = ('-')));
  2054  076A  302D               	movlw	45
  2055  076B  00B3               	movwf	??_sprintf
  2056  076C  083B               	movf	sprintf@sp,w
  2057  076D  0084               	movwf	4
  2058  076E  0833               	movf	??_sprintf,w
  2059  076F  1383               	bcf	3,7	;select IRP bank0
  2060  0770  0080               	movwf	0
  2061  0771                     l2899:
  2062  0771  3001               	movlw	1
  2063  0772  00B3               	movwf	??_sprintf
  2064  0773  0833               	movf	??_sprintf,w
  2065  0774  07BB               	addwf	sprintf@sp,f
  2066  0775                     l2901:
  2067                           
  2068                           ;C:\Program Files\Microchip\xc8\v2.35\pic\sources\c90\common\doprnt.c: 1495:   };C:\Prog
      +                          ram Files\Microchip\xc8\v2.35\pic\sources\c90\common\doprnt.c: 1498:   prec = c;
  2069  0775  083C               	movf	sprintf@c,w
  2070  0776  00B3               	movwf	??_sprintf
  2071  0777  0833               	movf	??_sprintf,w
  2072  0778  00B8               	movwf	sprintf@prec
  2073                           
  2074                           ;C:\Program Files\Microchip\xc8\v2.35\pic\sources\c90\common\doprnt.c: 1500:   while(pre
      +                          c--) {
  2075  0779  2FB5               	goto	l2909
  2076  077A                     l2903:
  2077                           
  2078                           ;C:\Program Files\Microchip\xc8\v2.35\pic\sources\c90\common\doprnt.c: 1504:    {;C:\Pro
      +                          gram Files\Microchip\xc8\v2.35\pic\sources\c90\common\doprnt.c: 1515:     c = (val / dpo
      +                          wers[(unsigned char)prec]) % 10 + '0';
  2079  077A  300A               	movlw	10
  2080  077B  00A8               	movwf	___lwmod@divisor
  2081  077C  3000               	movlw	0
  2082  077D  00A9               	movwf	___lwmod@divisor+1
  2083  077E  0838               	movf	sprintf@prec,w
  2084  077F  00B3               	movwf	??_sprintf
  2085  0780  0733               	addwf	??_sprintf,w
  2086  0781  3E01               	addlw	low ((_dpowers-__stringbase)| (0+32768))
  2087  0782  0084               	movwf	4
  2088  0783  120A  158A  200A  120A  118A  	fcall	stringdir
  2089  0788  00A0               	movwf	___lwdiv@divisor
  2090  0789  120A  158A  200A  120A  118A  	fcall	stringdir
  2091  078E  00A1               	movwf	___lwdiv@divisor+1
  2092  078F  083A               	movf	sprintf@val+1,w
  2093  0790  00A3               	movwf	___lwdiv@dividend+1
  2094  0791  0839               	movf	sprintf@val,w
  2095  0792  00A2               	movwf	___lwdiv@dividend
  2096  0793  160A  118A  276F  120A  118A  	fcall	___lwdiv
  2097  0798  1283               	bcf	3,5	;RP0=0, select bank0
  2098  0799  1303               	bcf	3,6	;RP1=0, select bank0
  2099  079A  0821               	movf	?___lwdiv+1,w
  2100  079B  00AB               	movwf	___lwmod@dividend+1
  2101  079C  0820               	movf	?___lwdiv,w
  2102  079D  00AA               	movwf	___lwmod@dividend
  2103  079E  160A  118A  26B0  120A  118A  	fcall	___lwmod
  2104  07A3  1283               	bcf	3,5	;RP0=0, select bank0
  2105  07A4  1303               	bcf	3,6	;RP1=0, select bank0
  2106  07A5  0828               	movf	?___lwmod,w
  2107  07A6  3E30               	addlw	48
  2108  07A7  00B4               	movwf	??_sprintf+1
  2109  07A8  0834               	movf	??_sprintf+1,w
  2110  07A9  00BC               	movwf	sprintf@c
  2111  07AA                     l2905:
  2112                           
  2113                           ;C:\Program Files\Microchip\xc8\v2.35\pic\sources\c90\common\doprnt.c: 1549:    };C:\Pro
      +                          gram Files\Microchip\xc8\v2.35\pic\sources\c90\common\doprnt.c: 1550:    ((*sp++ = (c)))
      +                          ;
  2114  07AA  083C               	movf	sprintf@c,w
  2115  07AB  00B3               	movwf	??_sprintf
  2116  07AC  083B               	movf	sprintf@sp,w
  2117  07AD  0084               	movwf	4
  2118  07AE  0833               	movf	??_sprintf,w
  2119  07AF  1383               	bcf	3,7	;select IRP bank0
  2120  07B0  0080               	movwf	0
  2121  07B1                     l2907:
  2122  07B1  3001               	movlw	1
  2123  07B2  00B3               	movwf	??_sprintf
  2124  07B3  0833               	movf	??_sprintf,w
  2125  07B4  07BB               	addwf	sprintf@sp,f
  2126  07B5                     l2909:
  2127                           
  2128                           ;C:\Program Files\Microchip\xc8\v2.35\pic\sources\c90\common\doprnt.c: 1500:   while(pre
      +                          c--) {
  2129  07B5  30FF               	movlw	255
  2130  07B6  00B3               	movwf	??_sprintf
  2131  07B7  0833               	movf	??_sprintf,w
  2132  07B8  07B8               	addwf	sprintf@prec,f
  2133  07B9  0A38               	incf	sprintf@prec,w
  2134  07BA  1D03               	btfss	3,2
  2135  07BB  2FBD               	goto	u3591
  2136  07BC  2FBE               	goto	u3590
  2137  07BD                     u3591:
  2138  07BD  2F7A               	goto	l2903
  2139  07BE                     u3590:
  2140  07BE                     l2911:
  2141                           
  2142                           ;C:\Program Files\Microchip\xc8\v2.35\pic\sources\c90\common\doprnt.c: 553:  while((c = 
      +                          *f++)) {
  2143  07BE  3001               	movlw	1
  2144  07BF  07AE               	addwf	sprintf@f,f
  2145  07C0  30FF               	movlw	-1
  2146  07C1  072E               	addwf	sprintf@f,w
  2147  07C2  0084               	movwf	4
  2148  07C3  120A  158A  200A  120A  118A  	fcall	stringdir
  2149  07C8  00B3               	movwf	??_sprintf
  2150  07C9  0833               	movf	??_sprintf,w
  2151  07CA  00BC               	movwf	sprintf@c
  2152  07CB  083C               	movf	sprintf@c,w
  2153  07CC  1D03               	btfss	3,2
  2154  07CD  2FCF               	goto	u3601
  2155  07CE  2FD0               	goto	u3600
  2156  07CF                     u3601:
  2157  07CF  2EF3               	goto	l2861
  2158  07D0                     u3600:
  2159  07D0                     l2913:
  2160                           
  2161                           ;C:\Program Files\Microchip\xc8\v2.35\pic\sources\c90\common\doprnt.c: 1564:  *sp = 0;
  2162  07D0  083B               	movf	sprintf@sp,w
  2163  07D1  0084               	movwf	4
  2164  07D2  1383               	bcf	3,7	;select IRP bank0
  2165  07D3  0180               	clrf	0
  2166  07D4                     l371:
  2167  07D4  0008               	return
  2168  07D5                     __end_of_sprintf:
  2169                           
  2170                           	psect	text2
  2171  16B0                     __ptext2:	
  2172 ;; *************** function ___lwmod *****************
  2173 ;; Defined at:
  2174 ;;		line 5 in file "C:\Program Files\Microchip\xc8\v2.35\pic\sources\c90\common\lwmod.c"
  2175 ;; Parameters:    Size  Location     Type
  2176 ;;  divisor         2    8[BANK0 ] unsigned int 
  2177 ;;  dividend        2   10[BANK0 ] unsigned int 
  2178 ;; Auto vars:     Size  Location     Type
  2179 ;;  counter         1   13[BANK0 ] unsigned char 
  2180 ;; Return value:  Size  Location     Type
  2181 ;;                  2    8[BANK0 ] unsigned int 
  2182 ;; Registers used:
  2183 ;;		wreg, status,2, status,0
  2184 ;; Tracked objects:
  2185 ;;		On entry : 0/0
  2186 ;;		On exit  : 0/0
  2187 ;;		Unchanged: 0/0
  2188 ;; Data sizes:     COMMON   BANK0   BANK1   BANK3   BANK2
  2189 ;;      Params:         0       4       0       0       0
  2190 ;;      Locals:         0       1       0       0       0
  2191 ;;      Temps:          0       1       0       0       0
  2192 ;;      Totals:         0       6       0       0       0
  2193 ;;Total ram usage:        6 bytes
  2194 ;; Hardware stack levels used: 1
  2195 ;; Hardware stack levels required when called: 2
  2196 ;; This function calls:
  2197 ;;		Nothing
  2198 ;; This function is called by:
  2199 ;;		_sprintf
  2200 ;; This function uses a non-reentrant model
  2201 ;;
  2202                           
  2203  16B0                     ___lwmod:	
  2204                           ;psect for function ___lwmod
  2205                           
  2206  16B0                     l2235:	
  2207                           ;incstack = 0
  2208                           ; Regs used in ___lwmod: [wreg+status,2+status,0]
  2209                           
  2210  16B0  1283               	bcf	3,5	;RP0=0, select bank0
  2211  16B1  1303               	bcf	3,6	;RP1=0, select bank0
  2212  16B2  0828               	movf	___lwmod@divisor,w
  2213  16B3  0429               	iorwf	___lwmod@divisor+1,w
  2214  16B4  1903               	btfsc	3,2
  2215  16B5  2EB7               	goto	u2131
  2216  16B6  2EB8               	goto	u2130
  2217  16B7                     u2131:
  2218  16B7  2EE7               	goto	l2253
  2219  16B8                     u2130:
  2220  16B8                     l2237:
  2221  16B8  01AD               	clrf	___lwmod@counter
  2222  16B9  0AAD               	incf	___lwmod@counter,f
  2223  16BA  2EC6               	goto	l2243
  2224  16BB                     l2239:
  2225  16BB  3001               	movlw	1
  2226  16BC                     u2145:
  2227  16BC  1003               	clrc
  2228  16BD  0DA8               	rlf	___lwmod@divisor,f
  2229  16BE  0DA9               	rlf	___lwmod@divisor+1,f
  2230  16BF  3EFF               	addlw	-1
  2231  16C0  1D03               	skipz
  2232  16C1  2EBC               	goto	u2145
  2233  16C2                     l2241:
  2234  16C2  3001               	movlw	1
  2235  16C3  00AC               	movwf	??___lwmod
  2236  16C4  082C               	movf	??___lwmod,w
  2237  16C5  07AD               	addwf	___lwmod@counter,f
  2238  16C6                     l2243:
  2239  16C6  1FA9               	btfss	___lwmod@divisor+1,7
  2240  16C7  2EC9               	goto	u2151
  2241  16C8  2ECA               	goto	u2150
  2242  16C9                     u2151:
  2243  16C9  2EBB               	goto	l2239
  2244  16CA                     u2150:
  2245  16CA                     l2245:
  2246  16CA  0829               	movf	___lwmod@divisor+1,w
  2247  16CB  022B               	subwf	___lwmod@dividend+1,w
  2248  16CC  1D03               	skipz
  2249  16CD  2ED0               	goto	u2165
  2250  16CE  0828               	movf	___lwmod@divisor,w
  2251  16CF  022A               	subwf	___lwmod@dividend,w
  2252  16D0                     u2165:
  2253  16D0  1C03               	skipc
  2254  16D1  2ED3               	goto	u2161
  2255  16D2  2ED4               	goto	u2160
  2256  16D3                     u2161:
  2257  16D3  2EDA               	goto	l2249
  2258  16D4                     u2160:
  2259  16D4                     l2247:
  2260  16D4  0828               	movf	___lwmod@divisor,w
  2261  16D5  02AA               	subwf	___lwmod@dividend,f
  2262  16D6  0829               	movf	___lwmod@divisor+1,w
  2263  16D7  1C03               	skipc
  2264  16D8  03AB               	decf	___lwmod@dividend+1,f
  2265  16D9  02AB               	subwf	___lwmod@dividend+1,f
  2266  16DA                     l2249:
  2267  16DA  3001               	movlw	1
  2268  16DB                     u2175:
  2269  16DB  1003               	clrc
  2270  16DC  0CA9               	rrf	___lwmod@divisor+1,f
  2271  16DD  0CA8               	rrf	___lwmod@divisor,f
  2272  16DE  3EFF               	addlw	-1
  2273  16DF  1D03               	skipz
  2274  16E0  2EDB               	goto	u2175
  2275  16E1                     l2251:
  2276  16E1  3001               	movlw	1
  2277  16E2  02AD               	subwf	___lwmod@counter,f
  2278  16E3  1D03               	btfss	3,2
  2279  16E4  2EE6               	goto	u2181
  2280  16E5  2EE7               	goto	u2180
  2281  16E6                     u2181:
  2282  16E6  2ECA               	goto	l2245
  2283  16E7                     u2180:
  2284  16E7                     l2253:
  2285  16E7  082B               	movf	___lwmod@dividend+1,w
  2286  16E8  00A9               	movwf	?___lwmod+1
  2287  16E9  082A               	movf	___lwmod@dividend,w
  2288  16EA  00A8               	movwf	?___lwmod
  2289  16EB                     l657:
  2290  16EB  0008               	return
  2291  16EC                     __end_of___lwmod:
  2292                           
  2293                           	psect	text3
  2294  176F                     __ptext3:	
  2295 ;; *************** function ___lwdiv *****************
  2296 ;; Defined at:
  2297 ;;		line 5 in file "C:\Program Files\Microchip\xc8\v2.35\pic\sources\c90\common\lwdiv.c"
  2298 ;; Parameters:    Size  Location     Type
  2299 ;;  divisor         2    0[BANK0 ] unsigned int 
  2300 ;;  dividend        2    2[BANK0 ] unsigned int 
  2301 ;; Auto vars:     Size  Location     Type
  2302 ;;  quotient        2    5[BANK0 ] unsigned int 
  2303 ;;  counter         1    7[BANK0 ] unsigned char 
  2304 ;; Return value:  Size  Location     Type
  2305 ;;                  2    0[BANK0 ] unsigned int 
  2306 ;; Registers used:
  2307 ;;		wreg, status,2, status,0
  2308 ;; Tracked objects:
  2309 ;;		On entry : 0/0
  2310 ;;		On exit  : 0/0
  2311 ;;		Unchanged: 0/0
  2312 ;; Data sizes:     COMMON   BANK0   BANK1   BANK3   BANK2
  2313 ;;      Params:         0       4       0       0       0
  2314 ;;      Locals:         0       3       0       0       0
  2315 ;;      Temps:          0       1       0       0       0
  2316 ;;      Totals:         0       8       0       0       0
  2317 ;;Total ram usage:        8 bytes
  2318 ;; Hardware stack levels used: 1
  2319 ;; Hardware stack levels required when called: 2
  2320 ;; This function calls:
  2321 ;;		Nothing
  2322 ;; This function is called by:
  2323 ;;		_main
  2324 ;;		_sprintf
  2325 ;; This function uses a non-reentrant model
  2326 ;;
  2327                           
  2328  176F                     ___lwdiv:	
  2329                           ;psect for function ___lwdiv
  2330                           
  2331  176F                     l2209:	
  2332                           ;incstack = 0
  2333                           ; Regs used in ___lwdiv: [wreg+status,2+status,0]
  2334                           
  2335  176F  1283               	bcf	3,5	;RP0=0, select bank0
  2336  1770  1303               	bcf	3,6	;RP1=0, select bank0
  2337  1771  01A5               	clrf	___lwdiv@quotient
  2338  1772  01A6               	clrf	___lwdiv@quotient+1
  2339  1773                     l2211:
  2340  1773  0820               	movf	___lwdiv@divisor,w
  2341  1774  0421               	iorwf	___lwdiv@divisor+1,w
  2342  1775  1903               	btfsc	3,2
  2343  1776  2F78               	goto	u2061
  2344  1777  2F79               	goto	u2060
  2345  1778                     u2061:
  2346  1778  2FB0               	goto	l2231
  2347  1779                     u2060:
  2348  1779                     l2213:
  2349  1779  01A7               	clrf	___lwdiv@counter
  2350  177A  0AA7               	incf	___lwdiv@counter,f
  2351  177B  2F87               	goto	l2219
  2352  177C                     l2215:
  2353  177C  3001               	movlw	1
  2354  177D                     u2075:
  2355  177D  1003               	clrc
  2356  177E  0DA0               	rlf	___lwdiv@divisor,f
  2357  177F  0DA1               	rlf	___lwdiv@divisor+1,f
  2358  1780  3EFF               	addlw	-1
  2359  1781  1D03               	skipz
  2360  1782  2F7D               	goto	u2075
  2361  1783                     l2217:
  2362  1783  3001               	movlw	1
  2363  1784  00A4               	movwf	??___lwdiv
  2364  1785  0824               	movf	??___lwdiv,w
  2365  1786  07A7               	addwf	___lwdiv@counter,f
  2366  1787                     l2219:
  2367  1787  1FA1               	btfss	___lwdiv@divisor+1,7
  2368  1788  2F8A               	goto	u2081
  2369  1789  2F8B               	goto	u2080
  2370  178A                     u2081:
  2371  178A  2F7C               	goto	l2215
  2372  178B                     u2080:
  2373  178B                     l2221:
  2374  178B  3001               	movlw	1
  2375  178C                     u2095:
  2376  178C  1003               	clrc
  2377  178D  0DA5               	rlf	___lwdiv@quotient,f
  2378  178E  0DA6               	rlf	___lwdiv@quotient+1,f
  2379  178F  3EFF               	addlw	-1
  2380  1790  1D03               	skipz
  2381  1791  2F8C               	goto	u2095
  2382  1792  0821               	movf	___lwdiv@divisor+1,w
  2383  1793  0223               	subwf	___lwdiv@dividend+1,w
  2384  1794  1D03               	skipz
  2385  1795  2F98               	goto	u2105
  2386  1796  0820               	movf	___lwdiv@divisor,w
  2387  1797  0222               	subwf	___lwdiv@dividend,w
  2388  1798                     u2105:
  2389  1798  1C03               	skipc
  2390  1799  2F9B               	goto	u2101
  2391  179A  2F9C               	goto	u2100
  2392  179B                     u2101:
  2393  179B  2FA3               	goto	l2227
  2394  179C                     u2100:
  2395  179C                     l2223:
  2396  179C  0820               	movf	___lwdiv@divisor,w
  2397  179D  02A2               	subwf	___lwdiv@dividend,f
  2398  179E  0821               	movf	___lwdiv@divisor+1,w
  2399  179F  1C03               	skipc
  2400  17A0  03A3               	decf	___lwdiv@dividend+1,f
  2401  17A1  02A3               	subwf	___lwdiv@dividend+1,f
  2402  17A2                     l2225:
  2403  17A2  1425               	bsf	___lwdiv@quotient,0
  2404  17A3                     l2227:
  2405  17A3  3001               	movlw	1
  2406  17A4                     u2115:
  2407  17A4  1003               	clrc
  2408  17A5  0CA1               	rrf	___lwdiv@divisor+1,f
  2409  17A6  0CA0               	rrf	___lwdiv@divisor,f
  2410  17A7  3EFF               	addlw	-1
  2411  17A8  1D03               	skipz
  2412  17A9  2FA4               	goto	u2115
  2413  17AA                     l2229:
  2414  17AA  3001               	movlw	1
  2415  17AB  02A7               	subwf	___lwdiv@counter,f
  2416  17AC  1D03               	btfss	3,2
  2417  17AD  2FAF               	goto	u2121
  2418  17AE  2FB0               	goto	u2120
  2419  17AF                     u2121:
  2420  17AF  2F8B               	goto	l2221
  2421  17B0                     u2120:
  2422  17B0                     l2231:
  2423  17B0  0826               	movf	___lwdiv@quotient+1,w
  2424  17B1  00A1               	movwf	?___lwdiv+1
  2425  17B2  0825               	movf	___lwdiv@quotient,w
  2426  17B3  00A0               	movwf	?___lwdiv
  2427  17B4                     l647:
  2428  17B4  0008               	return
  2429  17B5                     __end_of___lwdiv:
  2430                           
  2431                           	psect	text4
  2432  1678                     __ptext4:	
  2433 ;; *************** function _setup *****************
  2434 ;; Defined at:
  2435 ;;		line 150 in file "main.c"
  2436 ;; Parameters:    Size  Location     Type
  2437 ;;		None
  2438 ;; Auto vars:     Size  Location     Type
  2439 ;;		None
  2440 ;; Return value:  Size  Location     Type
  2441 ;;                  1    wreg      void 
  2442 ;; Registers used:
  2443 ;;		wreg, fsr0l, fsr0h, status,2, status,0, pclath, cstack
  2444 ;; Tracked objects:
  2445 ;;		On entry : 0/0
  2446 ;;		On exit  : 0/0
  2447 ;;		Unchanged: 0/0
  2448 ;; Data sizes:     COMMON   BANK0   BANK1   BANK3   BANK2
  2449 ;;      Params:         0       0       0       0       0
  2450 ;;      Locals:         0       0       0       0       0
  2451 ;;      Temps:          0       0       0       0       0
  2452 ;;      Totals:         0       0       0       0       0
  2453 ;;Total ram usage:        0 bytes
  2454 ;; Hardware stack levels used: 1
  2455 ;; Hardware stack levels required when called: 3
  2456 ;; This function calls:
  2457 ;;		_adc_init
  2458 ;;		_init_osc_MHz
  2459 ;;		_tmr0_init
  2460 ;;		_tmr0_reload
  2461 ;; This function is called by:
  2462 ;;		_main
  2463 ;; This function uses a non-reentrant model
  2464 ;;
  2465                           
  2466  1678                     _setup:	
  2467                           ;psect for function _setup
  2468                           
  2469  1678                     l3263:	
  2470                           ;incstack = 0
  2471                           ; Regs used in _setup: [wreg-fsr0h+status,2+status,0+pclath+cstack]
  2472                           
  2473                           
  2474                           ;main.c: 151:     TRISD = 0X00;
  2475  1678  1683               	bsf	3,5	;RP0=1, select bank1
  2476  1679  1303               	bcf	3,6	;RP1=0, select bank1
  2477  167A  0188               	clrf	8	;volatile
  2478                           
  2479                           ;main.c: 152:     TRISC = 0X00;
  2480  167B  0187               	clrf	7	;volatile
  2481                           
  2482                           ;main.c: 153:     ANSELH = 0;
  2483  167C  1683               	bsf	3,5	;RP0=1, select bank3
  2484  167D  1703               	bsf	3,6	;RP1=1, select bank3
  2485  167E  0189               	clrf	9	;volatile
  2486                           
  2487                           ;main.c: 154:     TRISB = 0;
  2488  167F  1683               	bsf	3,5	;RP0=1, select bank1
  2489  1680  1303               	bcf	3,6	;RP1=0, select bank1
  2490  1681  0186               	clrf	6	;volatile
  2491                           
  2492                           ;main.c: 155:     PORTB = 0;
  2493  1682  1283               	bcf	3,5	;RP0=0, select bank0
  2494  1683  1303               	bcf	3,6	;RP1=0, select bank0
  2495  1684  0186               	clrf	6	;volatile
  2496  1685                     l3265:
  2497                           
  2498                           ;main.c: 156:     init_osc_MHz(2);
  2499  1685  3002               	movlw	2
  2500  1686  160A  118A  27B5  160A  118A  	fcall	_init_osc_MHz
  2501  168B                     l3267:
  2502                           
  2503                           ;main.c: 157:     adc_init(1,0,0);
  2504  168B  1283               	bcf	3,5	;RP0=0, select bank0
  2505  168C  1303               	bcf	3,6	;RP1=0, select bank0
  2506  168D  01A0               	clrf	adc_init@vref_plus
  2507  168E  01A1               	clrf	adc_init@vref_minus
  2508  168F  3001               	movlw	1
  2509  1690  120A  158A  2099  160A  118A  	fcall	_adc_init
  2510  1695                     l3269:
  2511                           
  2512                           ;main.c: 158:     PIR1bits.ADIF = 0;
  2513  1695  1283               	bcf	3,5	;RP0=0, select bank0
  2514  1696  1303               	bcf	3,6	;RP1=0, select bank0
  2515  1697  130C               	bcf	12,6	;volatile
  2516  1698                     l3271:
  2517                           
  2518                           ;main.c: 159:     PIE1bits.ADIE = 1;
  2519  1698  1683               	bsf	3,5	;RP0=1, select bank1
  2520  1699  1303               	bcf	3,6	;RP1=0, select bank1
  2521  169A  170C               	bsf	12,6	;volatile
  2522  169B                     l3273:
  2523                           
  2524                           ;main.c: 160:     INTCONbits.PEIE = 1;
  2525  169B  170B               	bsf	11,6	;volatile
  2526  169C                     l3275:
  2527                           
  2528                           ;main.c: 161:     INTCONbits.GIE = 1;
  2529  169C  178B               	bsf	11,7	;volatile
  2530  169D                     l3277:
  2531                           
  2532                           ;main.c: 162:     PIE1bits.RCIE = 1;
  2533  169D  168C               	bsf	12,5	;volatile
  2534  169E                     l3279:
  2535                           
  2536                           ;main.c: 163:     INTCONbits.T0IE = 1;
  2537  169E  168B               	bsf	11,5	;volatile
  2538  169F                     l3281:
  2539                           
  2540                           ;main.c: 164:     tmr0_reload();
  2541  169F  160A  118A  25FF  160A  118A  	fcall	_tmr0_reload
  2542  16A4                     l3283:
  2543                           
  2544                           ;main.c: 165:     tmr0_init(256);
  2545  16A4  3000               	movlw	0
  2546  16A5  1283               	bcf	3,5	;RP0=0, select bank0
  2547  16A6  1303               	bcf	3,6	;RP1=0, select bank0
  2548  16A7  00A0               	movwf	tmr0_init@prescaler
  2549  16A8  3001               	movlw	1
  2550  16A9  00A1               	movwf	tmr0_init@prescaler+1
  2551  16AA  120A  158A  21EC  160A  118A  	fcall	_tmr0_init
  2552  16AF                     l258:
  2553  16AF  0008               	return
  2554  16B0                     __end_of_setup:
  2555                           
  2556                           	psect	text5
  2557  15FF                     __ptext5:	
  2558 ;; *************** function _tmr0_reload *****************
  2559 ;; Defined at:
  2560 ;;		line 40 in file "../LABORATORIO1.X/tmr0.c"
  2561 ;; Parameters:    Size  Location     Type
  2562 ;;		None
  2563 ;; Auto vars:     Size  Location     Type
  2564 ;;		None
  2565 ;; Return value:  Size  Location     Type
  2566 ;;                  1    wreg      void 
  2567 ;; Registers used:
  2568 ;;		wreg
  2569 ;; Tracked objects:
  2570 ;;		On entry : 0/0
  2571 ;;		On exit  : 0/0
  2572 ;;		Unchanged: 0/0
  2573 ;; Data sizes:     COMMON   BANK0   BANK1   BANK3   BANK2
  2574 ;;      Params:         0       0       0       0       0
  2575 ;;      Locals:         0       0       0       0       0
  2576 ;;      Temps:          0       0       0       0       0
  2577 ;;      Totals:         0       0       0       0       0
  2578 ;;Total ram usage:        0 bytes
  2579 ;; Hardware stack levels used: 1
  2580 ;; Hardware stack levels required when called: 2
  2581 ;; This function calls:
  2582 ;;		Nothing
  2583 ;; This function is called by:
  2584 ;;		_setup
  2585 ;; This function uses a non-reentrant model
  2586 ;;
  2587                           
  2588  15FF                     _tmr0_reload:	
  2589                           ;psect for function _tmr0_reload
  2590                           
  2591  15FF                     l3219:	
  2592                           ;incstack = 0
  2593                           ; Regs used in _tmr0_reload: [wreg]
  2594                           
  2595                           
  2596                           ;../LABORATORIO1.X/tmr0.c: 41:     TMR0 = 61;
  2597  15FF  303D               	movlw	61
  2598  1600  1283               	bcf	3,5	;RP0=0, select bank0
  2599  1601  1303               	bcf	3,6	;RP1=0, select bank0
  2600  1602  0081               	movwf	1	;volatile
  2601  1603                     l3221:
  2602                           
  2603                           ;../LABORATORIO1.X/tmr0.c: 42:     INTCONbits.T0IF = 0;
  2604  1603  110B               	bcf	11,2	;volatile
  2605  1604                     l157:
  2606  1604  0008               	return
  2607  1605                     __end_of_tmr0_reload:
  2608                           
  2609                           	psect	text6
  2610  09EC                     __ptext6:	
  2611 ;; *************** function _tmr0_init *****************
  2612 ;; Defined at:
  2613 ;;		line 6 in file "../LABORATORIO1.X/tmr0.c"
  2614 ;; Parameters:    Size  Location     Type
  2615 ;;  prescaler       2    0[BANK0 ] unsigned int 
  2616 ;; Auto vars:     Size  Location     Type
  2617 ;;		None
  2618 ;; Return value:  Size  Location     Type
  2619 ;;                  1    wreg      void 
  2620 ;; Registers used:
  2621 ;;		wreg, fsr0l, fsr0h, status,2, status,0
  2622 ;; Tracked objects:
  2623 ;;		On entry : 0/0
  2624 ;;		On exit  : 0/0
  2625 ;;		Unchanged: 0/0
  2626 ;; Data sizes:     COMMON   BANK0   BANK1   BANK3   BANK2
  2627 ;;      Params:         0       2       0       0       0
  2628 ;;      Locals:         0       0       0       0       0
  2629 ;;      Temps:          0       0       0       0       0
  2630 ;;      Totals:         0       2       0       0       0
  2631 ;;Total ram usage:        2 bytes
  2632 ;; Hardware stack levels used: 1
  2633 ;; Hardware stack levels required when called: 2
  2634 ;; This function calls:
  2635 ;;		Nothing
  2636 ;; This function is called by:
  2637 ;;		_setup
  2638 ;; This function uses a non-reentrant model
  2639 ;;
  2640                           
  2641  09EC                     _tmr0_init:	
  2642                           ;psect for function _tmr0_init
  2643                           
  2644  09EC                     l3185:	
  2645                           ;incstack = 0
  2646                           ; Regs used in _tmr0_init: [wreg-fsr0h+status,2+status,0]
  2647                           
  2648                           
  2649                           ;../LABORATORIO1.X/tmr0.c: 7:     OPTION_REGbits.T0CS = 0;
  2650  09EC  1683               	bsf	3,5	;RP0=1, select bank1
  2651  09ED  1303               	bcf	3,6	;RP1=0, select bank1
  2652  09EE  1281               	bcf	1,5	;volatile
  2653                           
  2654                           ;../LABORATORIO1.X/tmr0.c: 8:     OPTION_REGbits.PSA = 0;
  2655  09EF  1181               	bcf	1,3	;volatile
  2656                           
  2657                           ;../LABORATORIO1.X/tmr0.c: 9:     switch(prescaler){
  2658  09F0  2A25               	goto	l3205
  2659  09F1                     l3187:
  2660                           
  2661                           ;../LABORATORIO1.X/tmr0.c: 11:             OPTION_REGbits.PS = 0b000;
  2662  09F1  30F8               	movlw	-8
  2663  09F2  1683               	bsf	3,5	;RP0=1, select bank1
  2664  09F3  1303               	bcf	3,6	;RP1=0, select bank1
  2665  09F4  0581               	andwf	1,f	;volatile
  2666                           
  2667                           ;../LABORATORIO1.X/tmr0.c: 12:             break;
  2668  09F5  2A4B               	goto	l3207
  2669  09F6                     l3189:
  2670                           
  2671                           ;../LABORATORIO1.X/tmr0.c: 14:             OPTION_REGbits.PS = 0b001;
  2672  09F6  1683               	bsf	3,5	;RP0=1, select bank1
  2673  09F7  1303               	bcf	3,6	;RP1=0, select bank1
  2674  09F8  0801               	movf	1,w	;volatile
  2675  09F9  39F8               	andlw	-8
  2676  09FA  3801               	iorlw	1
  2677  09FB  0081               	movwf	1	;volatile
  2678                           
  2679                           ;../LABORATORIO1.X/tmr0.c: 15:             break;
  2680  09FC  2A4B               	goto	l3207
  2681  09FD                     l3191:
  2682                           
  2683                           ;../LABORATORIO1.X/tmr0.c: 17:             OPTION_REGbits.PS = 0b010;
  2684  09FD  1683               	bsf	3,5	;RP0=1, select bank1
  2685  09FE  1303               	bcf	3,6	;RP1=0, select bank1
  2686  09FF  0801               	movf	1,w	;volatile
  2687  0A00  39F8               	andlw	-8
  2688  0A01  3802               	iorlw	2
  2689  0A02  0081               	movwf	1	;volatile
  2690                           
  2691                           ;../LABORATORIO1.X/tmr0.c: 18:             break;
  2692  0A03  2A4B               	goto	l3207
  2693  0A04                     l3193:
  2694                           
  2695                           ;../LABORATORIO1.X/tmr0.c: 20:             OPTION_REGbits.PS = 0b011;
  2696  0A04  1683               	bsf	3,5	;RP0=1, select bank1
  2697  0A05  1303               	bcf	3,6	;RP1=0, select bank1
  2698  0A06  0801               	movf	1,w	;volatile
  2699  0A07  39F8               	andlw	-8
  2700  0A08  3803               	iorlw	3
  2701  0A09  0081               	movwf	1	;volatile
  2702                           
  2703                           ;../LABORATORIO1.X/tmr0.c: 21:             break;
  2704  0A0A  2A4B               	goto	l3207
  2705  0A0B                     l3195:
  2706                           
  2707                           ;../LABORATORIO1.X/tmr0.c: 23:             OPTION_REGbits.PS = 0b100;
  2708  0A0B  1683               	bsf	3,5	;RP0=1, select bank1
  2709  0A0C  1303               	bcf	3,6	;RP1=0, select bank1
  2710  0A0D  0801               	movf	1,w	;volatile
  2711  0A0E  39F8               	andlw	-8
  2712  0A0F  3804               	iorlw	4
  2713  0A10  0081               	movwf	1	;volatile
  2714                           
  2715                           ;../LABORATORIO1.X/tmr0.c: 24:             break;
  2716  0A11  2A4B               	goto	l3207
  2717  0A12                     l3197:
  2718                           
  2719                           ;../LABORATORIO1.X/tmr0.c: 26:             OPTION_REGbits.PS = 0b101;
  2720  0A12  1683               	bsf	3,5	;RP0=1, select bank1
  2721  0A13  1303               	bcf	3,6	;RP1=0, select bank1
  2722  0A14  0801               	movf	1,w	;volatile
  2723  0A15  39F8               	andlw	-8
  2724  0A16  3805               	iorlw	5
  2725  0A17  0081               	movwf	1	;volatile
  2726                           
  2727                           ;../LABORATORIO1.X/tmr0.c: 27:             break;
  2728  0A18  2A4B               	goto	l3207
  2729  0A19                     l3199:
  2730                           
  2731                           ;../LABORATORIO1.X/tmr0.c: 29:             OPTION_REGbits.PS = 0b110;
  2732  0A19  1683               	bsf	3,5	;RP0=1, select bank1
  2733  0A1A  1303               	bcf	3,6	;RP1=0, select bank1
  2734  0A1B  0801               	movf	1,w	;volatile
  2735  0A1C  39F8               	andlw	-8
  2736  0A1D  3806               	iorlw	6
  2737  0A1E  0081               	movwf	1	;volatile
  2738                           
  2739                           ;../LABORATORIO1.X/tmr0.c: 30:             break;
  2740  0A1F  2A4B               	goto	l3207
  2741  0A20                     l3201:
  2742                           
  2743                           ;../LABORATORIO1.X/tmr0.c: 32:             OPTION_REGbits.PS = 0b111;
  2744  0A20  3007               	movlw	7
  2745  0A21  1683               	bsf	3,5	;RP0=1, select bank1
  2746  0A22  1303               	bcf	3,6	;RP1=0, select bank1
  2747  0A23  0481               	iorwf	1,f	;volatile
  2748                           
  2749                           ;../LABORATORIO1.X/tmr0.c: 33:             break;
  2750  0A24  2A4B               	goto	l3207
  2751  0A25                     l3205:
  2752                           
  2753                           ; Switch on 2 bytes has been partitioned into a top level switch of size 1, and 2 sub-sw
      +                          itches
  2754                           ; Switch size 1, requested type "simple"
  2755                           ; Number of cases is 2, Range of values is 0 to 1
  2756                           ; switch strategies available:
  2757                           ; Name         Instructions Cycles
  2758                           ; simple_byte            7     4 (average)
  2759                           ; direct_byte           14     8 (fixed)
  2760                           ; jumptable            260     6 (fixed)
  2761                           ;	Chosen strategy is simple_byte
  2762  0A25  1283               	bcf	3,5	;RP0=0, select bank0
  2763  0A26  1303               	bcf	3,6	;RP1=0, select bank0
  2764  0A27  0821               	movf	tmr0_init@prescaler+1,w
  2765  0A28  3A00               	xorlw	0	; case 0
  2766  0A29  1903               	skipnz
  2767  0A2A  2A2F               	goto	l3469
  2768  0A2B  3A01               	xorlw	1	; case 1
  2769  0A2C  1903               	skipnz
  2770  0A2D  2A46               	goto	l3471
  2771  0A2E  2A4B               	goto	l3207
  2772  0A2F                     l3469:
  2773                           
  2774                           ; Switch size 1, requested type "simple"
  2775                           ; Number of cases is 7, Range of values is 2 to 128
  2776                           ; switch strategies available:
  2777                           ; Name         Instructions Cycles
  2778                           ; simple_byte           22    12 (average)
  2779                           ; jumptable            263     9 (fixed)
  2780                           ;	Chosen strategy is simple_byte
  2781  0A2F  0820               	movf	tmr0_init@prescaler,w
  2782  0A30  3A02               	xorlw	2	; case 2
  2783  0A31  1903               	skipnz
  2784  0A32  29F1               	goto	l3187
  2785  0A33  3A06               	xorlw	6	; case 4
  2786  0A34  1903               	skipnz
  2787  0A35  29F6               	goto	l3189
  2788  0A36  3A0C               	xorlw	12	; case 8
  2789  0A37  1903               	skipnz
  2790  0A38  29FD               	goto	l3191
  2791  0A39  3A18               	xorlw	24	; case 16
  2792  0A3A  1903               	skipnz
  2793  0A3B  2A04               	goto	l3193
  2794  0A3C  3A30               	xorlw	48	; case 32
  2795  0A3D  1903               	skipnz
  2796  0A3E  2A0B               	goto	l3195
  2797  0A3F  3A60               	xorlw	96	; case 64
  2798  0A40  1903               	skipnz
  2799  0A41  2A12               	goto	l3197
  2800  0A42  3AC0               	xorlw	192	; case 128
  2801  0A43  1903               	skipnz
  2802  0A44  2A19               	goto	l3199
  2803  0A45  2A4B               	goto	l3207
  2804  0A46                     l3471:
  2805                           
  2806                           ; Switch size 1, requested type "simple"
  2807                           ; Number of cases is 1, Range of values is 0 to 0
  2808                           ; switch strategies available:
  2809                           ; Name         Instructions Cycles
  2810                           ; simple_byte            4     3 (average)
  2811                           ; direct_byte           11     8 (fixed)
  2812                           ; jumptable            260     6 (fixed)
  2813                           ;	Chosen strategy is simple_byte
  2814  0A46  0820               	movf	tmr0_init@prescaler,w
  2815  0A47  3A00               	xorlw	0	; case 0
  2816  0A48  1903               	skipnz
  2817  0A49  2A20               	goto	l3201
  2818  0A4A  2A4B               	goto	l3207
  2819  0A4B                     l3207:
  2820                           
  2821                           ;../LABORATORIO1.X/tmr0.c: 37:     TMR0 = 61;
  2822  0A4B  303D               	movlw	61
  2823  0A4C  1283               	bcf	3,5	;RP0=0, select bank0
  2824  0A4D  0081               	movwf	1	;volatile
  2825  0A4E                     l3209:
  2826                           
  2827                           ;../LABORATORIO1.X/tmr0.c: 38:     INTCONbits.T0IF = 0;
  2828  0A4E  110B               	bcf	11,2	;volatile
  2829  0A4F                     l154:
  2830  0A4F  0008               	return
  2831  0A50                     __end_of_tmr0_init:
  2832                           
  2833                           	psect	text7
  2834  17B5                     __ptext7:	
  2835 ;; *************** function _init_osc_MHz *****************
  2836 ;; Defined at:
  2837 ;;		line 5 in file "../LABORATORIO1.X/oscilador.c"
  2838 ;; Parameters:    Size  Location     Type
  2839 ;;  freq            1    wreg     unsigned char 
  2840 ;; Auto vars:     Size  Location     Type
  2841 ;;  freq            1    2[BANK0 ] unsigned char 
  2842 ;; Return value:  Size  Location     Type
  2843 ;;                  1    wreg      void 
  2844 ;; Registers used:
  2845 ;;		wreg, fsr0l, fsr0h, status,2, status,0
  2846 ;; Tracked objects:
  2847 ;;		On entry : 0/0
  2848 ;;		On exit  : 0/0
  2849 ;;		Unchanged: 0/0
  2850 ;; Data sizes:     COMMON   BANK0   BANK1   BANK3   BANK2
  2851 ;;      Params:         0       0       0       0       0
  2852 ;;      Locals:         0       1       0       0       0
  2853 ;;      Temps:          0       2       0       0       0
  2854 ;;      Totals:         0       3       0       0       0
  2855 ;;Total ram usage:        3 bytes
  2856 ;; Hardware stack levels used: 1
  2857 ;; Hardware stack levels required when called: 2
  2858 ;; This function calls:
  2859 ;;		Nothing
  2860 ;; This function is called by:
  2861 ;;		_setup
  2862 ;; This function uses a non-reentrant model
  2863 ;;
  2864                           
  2865  17B5                     _init_osc_MHz:	
  2866                           ;psect for function _init_osc_MHz
  2867                           
  2868                           
  2869                           ;incstack = 0
  2870                           ; Regs used in _init_osc_MHz: [wreg-fsr0h+status,2+status,0]
  2871                           ;init_osc_MHz@freq stored from wreg
  2872  17B5  1283               	bcf	3,5	;RP0=0, select bank0
  2873  17B6  1303               	bcf	3,6	;RP1=0, select bank0
  2874  17B7  00A2               	movwf	init_osc_MHz@freq
  2875  17B8                     l2113:
  2876                           
  2877                           ;../LABORATORIO1.X/oscilador.c: 6:     OSCCONbits.SCS = 1;
  2878  17B8  1683               	bsf	3,5	;RP0=1, select bank1
  2879  17B9  1303               	bcf	3,6	;RP1=0, select bank1
  2880  17BA  140F               	bsf	15,0	;volatile
  2881                           
  2882                           ;../LABORATORIO1.X/oscilador.c: 7:     switch(freq){
  2883  17BB  2FE4               	goto	l2129
  2884  17BC                     l2115:
  2885                           
  2886                           ;../LABORATORIO1.X/oscilador.c: 9:             OSCCONbits.IRCF = 0b100;
  2887  17BC  1683               	bsf	3,5	;RP0=1, select bank1
  2888  17BD  1303               	bcf	3,6	;RP1=0, select bank1
  2889  17BE  080F               	movf	15,w	;volatile
  2890  17BF  398F               	andlw	-113
  2891  17C0  3840               	iorlw	64
  2892  17C1  008F               	movwf	15	;volatile
  2893                           
  2894                           ;../LABORATORIO1.X/oscilador.c: 10:             break;
  2895  17C2  2FFF               	goto	l99
  2896  17C3                     l2117:
  2897                           
  2898                           ;../LABORATORIO1.X/oscilador.c: 12:             OSCCONbits.IRCF = 0b101;
  2899  17C3  1683               	bsf	3,5	;RP0=1, select bank1
  2900  17C4  1303               	bcf	3,6	;RP1=0, select bank1
  2901  17C5  080F               	movf	15,w	;volatile
  2902  17C6  398F               	andlw	-113
  2903  17C7  3850               	iorlw	80
  2904  17C8  008F               	movwf	15	;volatile
  2905                           
  2906                           ;../LABORATORIO1.X/oscilador.c: 13:             break;
  2907  17C9  2FFF               	goto	l99
  2908  17CA                     l2119:
  2909                           
  2910                           ;../LABORATORIO1.X/oscilador.c: 15:             OSCCONbits.IRCF = 0b110;
  2911  17CA  1683               	bsf	3,5	;RP0=1, select bank1
  2912  17CB  1303               	bcf	3,6	;RP1=0, select bank1
  2913  17CC  080F               	movf	15,w	;volatile
  2914  17CD  398F               	andlw	-113
  2915  17CE  3860               	iorlw	96
  2916  17CF  008F               	movwf	15	;volatile
  2917                           
  2918                           ;../LABORATORIO1.X/oscilador.c: 16:             break;
  2919  17D0  2FFF               	goto	l99
  2920  17D1                     l2121:
  2921                           
  2922                           ;../LABORATORIO1.X/oscilador.c: 18:             OSCCONbits.IRCF = 0b111;
  2923  17D1  3070               	movlw	112
  2924  17D2  1683               	bsf	3,5	;RP0=1, select bank1
  2925  17D3  1303               	bcf	3,6	;RP1=0, select bank1
  2926  17D4  048F               	iorwf	15,f	;volatile
  2927                           
  2928                           ;../LABORATORIO1.X/oscilador.c: 19:             break;
  2929  17D5  2FFF               	goto	l99
  2930  17D6                     l2123:
  2931                           
  2932                           ;../LABORATORIO1.X/oscilador.c: 21:             OSCCONbits.IRCF = 0b011;
  2933  17D6  1683               	bsf	3,5	;RP0=1, select bank1
  2934  17D7  1303               	bcf	3,6	;RP1=0, select bank1
  2935  17D8  080F               	movf	15,w	;volatile
  2936  17D9  398F               	andlw	-113
  2937  17DA  3830               	iorlw	48
  2938  17DB  008F               	movwf	15	;volatile
  2939                           
  2940                           ;../LABORATORIO1.X/oscilador.c: 22:             break;
  2941  17DC  2FFF               	goto	l99
  2942  17DD                     l2125:
  2943                           
  2944                           ;../LABORATORIO1.X/oscilador.c: 24:             OSCCONbits.IRCF = 0b110;
  2945  17DD  1683               	bsf	3,5	;RP0=1, select bank1
  2946  17DE  1303               	bcf	3,6	;RP1=0, select bank1
  2947  17DF  080F               	movf	15,w	;volatile
  2948  17E0  398F               	andlw	-113
  2949  17E1  3860               	iorlw	96
  2950  17E2  008F               	movwf	15	;volatile
  2951                           
  2952                           ;../LABORATORIO1.X/oscilador.c: 25:             break;
  2953  17E3  2FFF               	goto	l99
  2954  17E4                     l2129:
  2955  17E4  1283               	bcf	3,5	;RP0=0, select bank0
  2956  17E5  1303               	bcf	3,6	;RP1=0, select bank0
  2957  17E6  0822               	movf	init_osc_MHz@freq,w
  2958  17E7  00A0               	movwf	??_init_osc_MHz
  2959  17E8  01A1               	clrf	??_init_osc_MHz+1
  2960                           
  2961                           ; Switch on 2 bytes has been partitioned into a top level switch of size 1, and 1 sub-sw
      +                          itches
  2962                           ; Switch size 1, requested type "simple"
  2963                           ; Number of cases is 1, Range of values is 0 to 0
  2964                           ; switch strategies available:
  2965                           ; Name         Instructions Cycles
  2966                           ; simple_byte            4     3 (average)
  2967                           ; direct_byte           11     8 (fixed)
  2968                           ; jumptable            260     6 (fixed)
  2969                           ;	Chosen strategy is simple_byte
  2970  17E9  0821               	movf	??_init_osc_MHz+1,w
  2971  17EA  3A00               	xorlw	0	; case 0
  2972  17EB  1903               	skipnz
  2973  17EC  2FEE               	goto	l3473
  2974  17ED  2FDD               	goto	l2125
  2975  17EE                     l3473:
  2976                           
  2977                           ; Switch size 1, requested type "simple"
  2978                           ; Number of cases is 5, Range of values is 0 to 4
  2979                           ; switch strategies available:
  2980                           ; Name         Instructions Cycles
  2981                           ; simple_byte           16     9 (average)
  2982                           ; direct_byte           23     8 (fixed)
  2983                           ; jumptable            260     6 (fixed)
  2984                           ;	Chosen strategy is simple_byte
  2985  17EE  0820               	movf	??_init_osc_MHz,w
  2986  17EF  3A00               	xorlw	0	; case 0
  2987  17F0  1903               	skipnz
  2988  17F1  2FBC               	goto	l2115
  2989  17F2  3A01               	xorlw	1	; case 1
  2990  17F3  1903               	skipnz
  2991  17F4  2FC3               	goto	l2117
  2992  17F5  3A03               	xorlw	3	; case 2
  2993  17F6  1903               	skipnz
  2994  17F7  2FCA               	goto	l2119
  2995  17F8  3A01               	xorlw	1	; case 3
  2996  17F9  1903               	skipnz
  2997  17FA  2FD1               	goto	l2121
  2998  17FB  3A07               	xorlw	7	; case 4
  2999  17FC  1903               	skipnz
  3000  17FD  2FD6               	goto	l2123
  3001  17FE  2FDD               	goto	l2125
  3002  17FF                     l99:
  3003  17FF  0008               	return
  3004  1800                     __end_of_init_osc_MHz:
  3005                           
  3006                           	psect	text8
  3007  0899                     __ptext8:	
  3008 ;; *************** function _adc_init *****************
  3009 ;; Defined at:
  3010 ;;		line 9 in file "../LABORATORIO1.X/adc.c"
  3011 ;; Parameters:    Size  Location     Type
  3012 ;;  adc_cs          1    wreg     unsigned char 
  3013 ;;  vref_plus       1    0[BANK0 ] unsigned char 
  3014 ;;  vref_minus      1    1[BANK0 ] unsigned char 
  3015 ;; Auto vars:     Size  Location     Type
  3016 ;;  adc_cs          1    4[BANK0 ] unsigned char 
  3017 ;; Return value:  Size  Location     Type
  3018 ;;                  1    wreg      void 
  3019 ;; Registers used:
  3020 ;;		wreg, fsr0l, fsr0h, status,2, status,0
  3021 ;; Tracked objects:
  3022 ;;		On entry : 0/0
  3023 ;;		On exit  : 0/0
  3024 ;;		Unchanged: 0/0
  3025 ;; Data sizes:     COMMON   BANK0   BANK1   BANK3   BANK2
  3026 ;;      Params:         0       2       0       0       0
  3027 ;;      Locals:         0       1       0       0       0
  3028 ;;      Temps:          0       2       0       0       0
  3029 ;;      Totals:         0       5       0       0       0
  3030 ;;Total ram usage:        5 bytes
  3031 ;; Hardware stack levels used: 1
  3032 ;; Hardware stack levels required when called: 2
  3033 ;; This function calls:
  3034 ;;		Nothing
  3035 ;; This function is called by:
  3036 ;;		_setup
  3037 ;; This function uses a non-reentrant model
  3038 ;;
  3039                           
  3040  0899                     _adc_init:	
  3041                           ;psect for function _adc_init
  3042                           
  3043                           
  3044                           ;incstack = 0
  3045                           ; Regs used in _adc_init: [wreg-fsr0h+status,2+status,0]
  3046                           ;adc_init@adc_cs stored from wreg
  3047  0899  1283               	bcf	3,5	;RP0=0, select bank0
  3048  089A  1303               	bcf	3,6	;RP1=0, select bank0
  3049  089B  00A4               	movwf	adc_init@adc_cs
  3050  089C                     l2083:
  3051                           
  3052                           ;../LABORATORIO1.X/adc.c: 11:     switch(adc_cs){
  3053  089C  28AD               	goto	l2095
  3054  089D                     l2085:
  3055                           
  3056                           ;../LABORATORIO1.X/adc.c: 13:             ADCON0bits.ADCS = 0b00;
  3057  089D  303F               	movlw	-193
  3058  089E  059F               	andwf	31,f	;volatile
  3059                           
  3060                           ;../LABORATORIO1.X/adc.c: 14:             break;
  3061  089F  28C3               	goto	l2097
  3062  08A0                     l2087:
  3063                           
  3064                           ;../LABORATORIO1.X/adc.c: 16:             ADCON0bits.ADCS = 0b01;
  3065  08A0  081F               	movf	31,w	;volatile
  3066  08A1  393F               	andlw	-193
  3067  08A2  3840               	iorlw	64
  3068  08A3  009F               	movwf	31	;volatile
  3069                           
  3070                           ;../LABORATORIO1.X/adc.c: 17:             break;
  3071  08A4  28C3               	goto	l2097
  3072  08A5                     l2089:
  3073                           
  3074                           ;../LABORATORIO1.X/adc.c: 19:             ADCON0bits.ADCS = 0b10;
  3075  08A5  081F               	movf	31,w	;volatile
  3076  08A6  393F               	andlw	-193
  3077  08A7  3880               	iorlw	128
  3078  08A8  009F               	movwf	31	;volatile
  3079                           
  3080                           ;../LABORATORIO1.X/adc.c: 20:             break;
  3081  08A9  28C3               	goto	l2097
  3082  08AA                     l2091:
  3083                           
  3084                           ;../LABORATORIO1.X/adc.c: 22:             ADCON0bits.ADCS = 0b11;
  3085  08AA  30C0               	movlw	192
  3086  08AB  049F               	iorwf	31,f	;volatile
  3087                           
  3088                           ;../LABORATORIO1.X/adc.c: 23:             break;
  3089  08AC  28C3               	goto	l2097
  3090  08AD                     l2095:
  3091  08AD  0824               	movf	adc_init@adc_cs,w
  3092  08AE  00A2               	movwf	??_adc_init
  3093  08AF  01A3               	clrf	??_adc_init+1
  3094                           
  3095                           ; Switch on 2 bytes has been partitioned into a top level switch of size 1, and 1 sub-sw
      +                          itches
  3096                           ; Switch size 1, requested type "simple"
  3097                           ; Number of cases is 1, Range of values is 0 to 0
  3098                           ; switch strategies available:
  3099                           ; Name         Instructions Cycles
  3100                           ; simple_byte            4     3 (average)
  3101                           ; direct_byte           11     8 (fixed)
  3102                           ; jumptable            260     6 (fixed)
  3103                           ;	Chosen strategy is simple_byte
  3104  08B0  0823               	movf	??_adc_init+1,w
  3105  08B1  3A00               	xorlw	0	; case 0
  3106  08B2  1903               	skipnz
  3107  08B3  28B5               	goto	l3475
  3108  08B4  28C3               	goto	l2097
  3109  08B5                     l3475:
  3110                           
  3111                           ; Switch size 1, requested type "simple"
  3112                           ; Number of cases is 4, Range of values is 0 to 3
  3113                           ; switch strategies available:
  3114                           ; Name         Instructions Cycles
  3115                           ; simple_byte           13     7 (average)
  3116                           ; direct_byte           20     8 (fixed)
  3117                           ; jumptable            260     6 (fixed)
  3118                           ;	Chosen strategy is simple_byte
  3119  08B5  0822               	movf	??_adc_init,w
  3120  08B6  3A00               	xorlw	0	; case 0
  3121  08B7  1903               	skipnz
  3122  08B8  289D               	goto	l2085
  3123  08B9  3A01               	xorlw	1	; case 1
  3124  08BA  1903               	skipnz
  3125  08BB  28A0               	goto	l2087
  3126  08BC  3A03               	xorlw	3	; case 2
  3127  08BD  1903               	skipnz
  3128  08BE  28A5               	goto	l2089
  3129  08BF  3A01               	xorlw	1	; case 3
  3130  08C0  1903               	skipnz
  3131  08C1  28AA               	goto	l2091
  3132  08C2  28C3               	goto	l2097
  3133  08C3                     l2097:
  3134                           
  3135                           ;../LABORATORIO1.X/adc.c: 27:     ADCON1bits.VCFG0 = vref_plus;
  3136  08C3  0C20               	rrf	adc_init@vref_plus,w
  3137  08C4  1683               	bsf	3,5	;RP0=1, select bank1
  3138  08C5  1303               	bcf	3,6	;RP1=0, select bank1
  3139  08C6  1C03               	skipc
  3140  08C7  121F               	bcf	31,4	;volatile
  3141  08C8  1803               	skipnc
  3142  08C9  161F               	bsf	31,4	;volatile
  3143                           
  3144                           ;../LABORATORIO1.X/adc.c: 28:     ADCON1bits.VCFG1 = vref_minus;
  3145  08CA  1283               	bcf	3,5	;RP0=0, select bank0
  3146  08CB  1303               	bcf	3,6	;RP1=0, select bank0
  3147  08CC  0C21               	rrf	adc_init@vref_minus,w
  3148  08CD  1683               	bsf	3,5	;RP0=1, select bank1
  3149  08CE  1303               	bcf	3,6	;RP1=0, select bank1
  3150  08CF  1C03               	skipc
  3151  08D0  129F               	bcf	31,5	;volatile
  3152  08D1  1803               	skipnc
  3153  08D2  169F               	bsf	31,5	;volatile
  3154  08D3                     l2099:
  3155                           
  3156                           ;../LABORATORIO1.X/adc.c: 29:     ADCON0bits.CHS = 0b0000;
  3157  08D3  30C3               	movlw	-61
  3158  08D4  1283               	bcf	3,5	;RP0=0, select bank0
  3159  08D5  1303               	bcf	3,6	;RP1=0, select bank0
  3160  08D6  059F               	andwf	31,f	;volatile
  3161  08D7                     l2101:
  3162                           
  3163                           ;../LABORATORIO1.X/adc.c: 30:     ADCON1bits.ADFM = 0;
  3164  08D7  1683               	bsf	3,5	;RP0=1, select bank1
  3165  08D8  1303               	bcf	3,6	;RP1=0, select bank1
  3166  08D9  139F               	bcf	31,7	;volatile
  3167  08DA                     l2103:
  3168                           
  3169                           ;../LABORATORIO1.X/adc.c: 31:     ADCON0bits.ADON = 1;
  3170  08DA  1283               	bcf	3,5	;RP0=0, select bank0
  3171  08DB  1303               	bcf	3,6	;RP1=0, select bank0
  3172  08DC  141F               	bsf	31,0	;volatile
  3173  08DD                     l2105:
  3174                           
  3175                           ;../LABORATORIO1.X/adc.c: 32:     _delay((unsigned long)((40)*(4000000/4000000.0)));
  3176  08DD  300C               	movlw	12
  3177  08DE  1283               	bcf	3,5	;RP0=0, select bank0
  3178  08DF  1303               	bcf	3,6	;RP1=0, select bank0
  3179  08E0  00A2               	movwf	??_adc_init
  3180  08E1                     u3917:
  3181  08E1  0BA2               	decfsz	??_adc_init,f
  3182  08E2  28E1               	goto	u3917
  3183  08E3  0000               	nop
  3184  08E4                     l75:
  3185  08E4  0008               	return
  3186  08E5                     __end_of_adc_init:
  3187                           
  3188                           	psect	text9
  3189  0B9E                     __ptext9:	
  3190 ;; *************** function _map *****************
  3191 ;; Defined at:
  3192 ;;		line 168 in file "main.c"
  3193 ;; Parameters:    Size  Location     Type
  3194 ;;  x               1    wreg     unsigned char 
  3195 ;;  x0              1   17[BANK1 ] unsigned char 
  3196 ;;  x1              1   18[BANK1 ] unsigned char 
  3197 ;;  y0              2   19[BANK1 ] unsigned short 
  3198 ;;  y1              2   21[BANK1 ] unsigned short 
  3199 ;; Auto vars:     Size  Location     Type
  3200 ;;  x               1   23[BANK1 ] unsigned char 
  3201 ;; Return value:  Size  Location     Type
  3202 ;;                  2   17[BANK1 ] unsigned short 
  3203 ;; Registers used:
  3204 ;;		wreg, status,2, status,0, btemp+1, pclath, cstack
  3205 ;; Tracked objects:
  3206 ;;		On entry : 0/0
  3207 ;;		On exit  : 0/0
  3208 ;;		Unchanged: 0/0
  3209 ;; Data sizes:     COMMON   BANK0   BANK1   BANK3   BANK2
  3210 ;;      Params:         0       0       6       0       0
  3211 ;;      Locals:         0       0       1       0       0
  3212 ;;      Temps:          0       0       0       0       0
  3213 ;;      Totals:         0       0       7       0       0
  3214 ;;Total ram usage:        7 bytes
  3215 ;; Hardware stack levels used: 1
  3216 ;; Hardware stack levels required when called: 4
  3217 ;; This function calls:
  3218 ;;		___fladd
  3219 ;;		___fldiv
  3220 ;;		___flmul
  3221 ;;		___fltol
  3222 ;;		___xxtofl
  3223 ;; This function is called by:
  3224 ;;		_main
  3225 ;; This function uses a non-reentrant model
  3226 ;;
  3227                           
  3228  0B9E                     _map:	
  3229                           ;psect for function _map
  3230                           
  3231                           
  3232                           ;incstack = 0
  3233                           ; Regs used in _map: [wreg+status,2+status,0+btemp+1+pclath+cstack]
  3234                           ;map@x stored from wreg
  3235  0B9E  1683               	bsf	3,5	;RP0=1, select bank1
  3236  0B9F  1303               	bcf	3,6	;RP1=0, select bank1
  3237  0BA0  00B7               	movwf	map@x^(0+128)
  3238  0BA1                     l3285:
  3239                           
  3240                           ;main.c: 168: unsigned short map(uint8_t x, uint8_t x0, uint8_t x1,;main.c: 169:        
      +                               unsigned short y0, unsigned short y1){;main.c: 170:     return (unsigned short)(y0+
      +                          ((float)(y1-y0)/(x1-x0))*(x-x0));
  3241  0BA1  0833               	movf	map@y0^(0+128),w
  3242  0BA2  1283               	bcf	3,5	;RP0=0, select bank0
  3243  0BA3  1303               	bcf	3,6	;RP1=0, select bank0
  3244  0BA4  00A0               	movwf	___xxtofl@val
  3245  0BA5  1683               	bsf	3,5	;RP0=1, select bank1
  3246  0BA6  1303               	bcf	3,6	;RP1=0, select bank1
  3247  0BA7  0834               	movf	(map@y0+1)^(0+128),w
  3248  0BA8  1283               	bcf	3,5	;RP0=0, select bank0
  3249  0BA9  1303               	bcf	3,6	;RP1=0, select bank0
  3250  0BAA  00A1               	movwf	___xxtofl@val+1
  3251  0BAB  01A2               	clrf	___xxtofl@val+2
  3252  0BAC  01A3               	clrf	___xxtofl@val+3
  3253  0BAD  3000               	movlw	0
  3254  0BAE  120A  158A  22E2  120A  158A  	fcall	___xxtofl
  3255  0BB3  1283               	bcf	3,5	;RP0=0, select bank0
  3256  0BB4  1303               	bcf	3,6	;RP1=0, select bank0
  3257  0BB5  0823               	movf	?___xxtofl+3,w
  3258  0BB6  00E9               	movwf	___fladd@a+3
  3259  0BB7  0822               	movf	?___xxtofl+2,w
  3260  0BB8  00E8               	movwf	___fladd@a+2
  3261  0BB9  0821               	movf	?___xxtofl+1,w
  3262  0BBA  00E7               	movwf	___fladd@a+1
  3263  0BBB  0820               	movf	?___xxtofl,w
  3264  0BBC  00E6               	movwf	___fladd@a
  3265  0BBD  1683               	bsf	3,5	;RP0=1, select bank1
  3266  0BBE  1303               	bcf	3,6	;RP1=0, select bank1
  3267  0BBF  0833               	movf	map@y0^(0+128),w
  3268  0BC0  0235               	subwf	map@y1^(0+128),w
  3269  0BC1  1283               	bcf	3,5	;RP0=0, select bank0
  3270  0BC2  1303               	bcf	3,6	;RP1=0, select bank0
  3271  0BC3  00A0               	movwf	___xxtofl@val
  3272  0BC4  1683               	bsf	3,5	;RP0=1, select bank1
  3273  0BC5  1303               	bcf	3,6	;RP1=0, select bank1
  3274  0BC6  0834               	movf	(map@y0+1)^(0+128),w
  3275  0BC7  1C03               	skipc
  3276  0BC8  0A34               	incf	(map@y0+1)^(0+128),w
  3277  0BC9  0236               	subwf	(map@y1+1)^(0+128),w
  3278  0BCA  1283               	bcf	3,5	;RP0=0, select bank0
  3279  0BCB  1303               	bcf	3,6	;RP1=0, select bank0
  3280  0BCC  00A1               	movwf	___xxtofl@val+1
  3281  0BCD  01A2               	clrf	___xxtofl@val+2
  3282  0BCE  01A3               	clrf	___xxtofl@val+3
  3283  0BCF  3000               	movlw	0
  3284  0BD0  120A  158A  22E2  120A  158A  	fcall	___xxtofl
  3285  0BD5  1283               	bcf	3,5	;RP0=0, select bank0
  3286  0BD6  1303               	bcf	3,6	;RP1=0, select bank0
  3287  0BD7  0823               	movf	?___xxtofl+3,w
  3288  0BD8  00B5               	movwf	___fldiv@b+3
  3289  0BD9  0822               	movf	?___xxtofl+2,w
  3290  0BDA  00B4               	movwf	___fldiv@b+2
  3291  0BDB  0821               	movf	?___xxtofl+1,w
  3292  0BDC  00B3               	movwf	___fldiv@b+1
  3293  0BDD  0820               	movf	?___xxtofl,w
  3294  0BDE  00B2               	movwf	___fldiv@b
  3295  0BDF  1683               	bsf	3,5	;RP0=1, select bank1
  3296  0BE0  1303               	bcf	3,6	;RP1=0, select bank1
  3297  0BE1  0831               	movf	map@x0^(0+128),w
  3298  0BE2  0232               	subwf	map@x1^(0+128),w
  3299  0BE3  1283               	bcf	3,5	;RP0=0, select bank0
  3300  0BE4  1303               	bcf	3,6	;RP1=0, select bank0
  3301  0BE5  00A0               	movwf	___xxtofl@val
  3302  0BE6  01A1               	clrf	___xxtofl@val+1
  3303  0BE7  1C03               	skipc
  3304  0BE8  03A1               	decf	___xxtofl@val+1,f
  3305  0BE9  01A2               	clrf	___xxtofl@val+2
  3306  0BEA  1BA1               	btfsc	___xxtofl@val+1,7
  3307  0BEB  03A2               	decf	___xxtofl@val+2,f
  3308  0BEC  0822               	movf	___xxtofl@val+2,w
  3309  0BED  00A3               	movwf	___xxtofl@val+3
  3310  0BEE  3001               	movlw	1
  3311  0BEF  120A  158A  22E2  120A  158A  	fcall	___xxtofl
  3312  0BF4  1283               	bcf	3,5	;RP0=0, select bank0
  3313  0BF5  1303               	bcf	3,6	;RP1=0, select bank0
  3314  0BF6  0823               	movf	?___xxtofl+3,w
  3315  0BF7  00B1               	movwf	___fldiv@a+3
  3316  0BF8  0822               	movf	?___xxtofl+2,w
  3317  0BF9  00B0               	movwf	___fldiv@a+2
  3318  0BFA  0821               	movf	?___xxtofl+1,w
  3319  0BFB  00AF               	movwf	___fldiv@a+1
  3320  0BFC  0820               	movf	?___xxtofl,w
  3321  0BFD  00AE               	movwf	___fldiv@a
  3322  0BFE  120A  158A  2623  120A  158A  	fcall	___fldiv
  3323  0C03  1283               	bcf	3,5	;RP0=0, select bank0
  3324  0C04  1303               	bcf	3,6	;RP1=0, select bank0
  3325  0C05  0831               	movf	?___fldiv+3,w
  3326  0C06  00CF               	movwf	___flmul@a+3
  3327  0C07  0830               	movf	?___fldiv+2,w
  3328  0C08  00CE               	movwf	___flmul@a+2
  3329  0C09  082F               	movf	?___fldiv+1,w
  3330  0C0A  00CD               	movwf	___flmul@a+1
  3331  0C0B  082E               	movf	?___fldiv,w
  3332  0C0C  00CC               	movwf	___flmul@a
  3333  0C0D  1683               	bsf	3,5	;RP0=1, select bank1
  3334  0C0E  1303               	bcf	3,6	;RP1=0, select bank1
  3335  0C0F  0831               	movf	map@x0^(0+128),w
  3336  0C10  0237               	subwf	map@x^(0+128),w
  3337  0C11  1283               	bcf	3,5	;RP0=0, select bank0
  3338  0C12  1303               	bcf	3,6	;RP1=0, select bank0
  3339  0C13  00A0               	movwf	___xxtofl@val
  3340  0C14  01A1               	clrf	___xxtofl@val+1
  3341  0C15  1C03               	skipc
  3342  0C16  03A1               	decf	___xxtofl@val+1,f
  3343  0C17  01A2               	clrf	___xxtofl@val+2
  3344  0C18  1BA1               	btfsc	___xxtofl@val+1,7
  3345  0C19  03A2               	decf	___xxtofl@val+2,f
  3346  0C1A  0822               	movf	___xxtofl@val+2,w
  3347  0C1B  00A3               	movwf	___xxtofl@val+3
  3348  0C1C  3001               	movlw	1
  3349  0C1D  120A  158A  22E2  120A  158A  	fcall	___xxtofl
  3350  0C22  1283               	bcf	3,5	;RP0=0, select bank0
  3351  0C23  1303               	bcf	3,6	;RP1=0, select bank0
  3352  0C24  0823               	movf	?___xxtofl+3,w
  3353  0C25  00CB               	movwf	___flmul@b+3
  3354  0C26  0822               	movf	?___xxtofl+2,w
  3355  0C27  00CA               	movwf	___flmul@b+2
  3356  0C28  0821               	movf	?___xxtofl+1,w
  3357  0C29  00C9               	movwf	___flmul@b+1
  3358  0C2A  0820               	movf	?___xxtofl,w
  3359  0C2B  00C8               	movwf	___flmul@b
  3360  0C2C  120A  118A  238A  120A  158A  	fcall	___flmul
  3361  0C31  1283               	bcf	3,5	;RP0=0, select bank0
  3362  0C32  1303               	bcf	3,6	;RP1=0, select bank0
  3363  0C33  084B               	movf	?___flmul+3,w
  3364  0C34  00E5               	movwf	___fladd@b+3
  3365  0C35  084A               	movf	?___flmul+2,w
  3366  0C36  00E4               	movwf	___fladd@b+2
  3367  0C37  0849               	movf	?___flmul+1,w
  3368  0C38  00E3               	movwf	___fladd@b+1
  3369  0C39  0848               	movf	?___flmul,w
  3370  0C3A  00E2               	movwf	___fladd@b
  3371  0C3B  120A  118A  2024  120A  158A  	fcall	___fladd
  3372  0C40  1283               	bcf	3,5	;RP0=0, select bank0
  3373  0C41  1303               	bcf	3,6	;RP1=0, select bank0
  3374  0C42  0865               	movf	?___fladd+3,w
  3375  0C43  1683               	bsf	3,5	;RP0=1, select bank1
  3376  0C44  1303               	bcf	3,6	;RP1=0, select bank1
  3377  0C45  00AB               	movwf	(___fltol@f1+3)^(0+128)
  3378  0C46  1283               	bcf	3,5	;RP0=0, select bank0
  3379  0C47  1303               	bcf	3,6	;RP1=0, select bank0
  3380  0C48  0864               	movf	?___fladd+2,w
  3381  0C49  1683               	bsf	3,5	;RP0=1, select bank1
  3382  0C4A  1303               	bcf	3,6	;RP1=0, select bank1
  3383  0C4B  00AA               	movwf	(___fltol@f1+2)^(0+128)
  3384  0C4C  1283               	bcf	3,5	;RP0=0, select bank0
  3385  0C4D  1303               	bcf	3,6	;RP1=0, select bank0
  3386  0C4E  0863               	movf	?___fladd+1,w
  3387  0C4F  1683               	bsf	3,5	;RP0=1, select bank1
  3388  0C50  1303               	bcf	3,6	;RP1=0, select bank1
  3389  0C51  00A9               	movwf	(___fltol@f1+1)^(0+128)
  3390  0C52  1283               	bcf	3,5	;RP0=0, select bank0
  3391  0C53  1303               	bcf	3,6	;RP1=0, select bank0
  3392  0C54  0862               	movf	?___fladd,w
  3393  0C55  1683               	bsf	3,5	;RP0=1, select bank1
  3394  0C56  1303               	bcf	3,6	;RP1=0, select bank1
  3395  0C57  00A8               	movwf	___fltol@f1^(0+128)
  3396  0C58  120A  158A  2250  120A  158A  	fcall	___fltol
  3397  0C5D  1683               	bsf	3,5	;RP0=1, select bank1
  3398  0C5E  1303               	bcf	3,6	;RP1=0, select bank1
  3399  0C5F  0829               	movf	(?___fltol+1)^(0+128),w
  3400  0C60  00B2               	movwf	(?_map+1)^(0+128)
  3401  0C61  0828               	movf	?___fltol^(0+128),w
  3402  0C62  00B1               	movwf	?_map^(0+128)
  3403  0C63                     l261:
  3404  0C63  0008               	return
  3405  0C64                     __end_of_map:
  3406                           
  3407                           	psect	text10
  3408  0AE2                     __ptext10:	
  3409 ;; *************** function ___xxtofl *****************
  3410 ;; Defined at:
  3411 ;;		line 10 in file "C:\Program Files\Microchip\xc8\v2.35\pic\sources\c90\common\xxtofl.c"
  3412 ;; Parameters:    Size  Location     Type
  3413 ;;  sign            1    wreg     unsigned char 
  3414 ;;  val             4    0[BANK0 ] long 
  3415 ;; Auto vars:     Size  Location     Type
  3416 ;;  sign            1    8[BANK0 ] unsigned char 
  3417 ;;  arg             4   10[BANK0 ] unsigned long 
  3418 ;;  exp             1    9[BANK0 ] unsigned char 
  3419 ;; Return value:  Size  Location     Type
  3420 ;;                  4    0[BANK0 ] unsigned char 
  3421 ;; Registers used:
  3422 ;;		wreg, status,2, status,0
  3423 ;; Tracked objects:
  3424 ;;		On entry : 0/0
  3425 ;;		On exit  : 0/0
  3426 ;;		Unchanged: 0/0
  3427 ;; Data sizes:     COMMON   BANK0   BANK1   BANK3   BANK2
  3428 ;;      Params:         0       4       0       0       0
  3429 ;;      Locals:         0       6       0       0       0
  3430 ;;      Temps:          0       4       0       0       0
  3431 ;;      Totals:         0      14       0       0       0
  3432 ;;Total ram usage:       14 bytes
  3433 ;; Hardware stack levels used: 1
  3434 ;; Hardware stack levels required when called: 2
  3435 ;; This function calls:
  3436 ;;		Nothing
  3437 ;; This function is called by:
  3438 ;;		_map
  3439 ;; This function uses a non-reentrant model
  3440 ;;
  3441                           
  3442  0AE2                     ___xxtofl:	
  3443                           ;psect for function ___xxtofl
  3444                           
  3445                           
  3446                           ;incstack = 0
  3447                           ; Regs used in ___xxtofl: [wreg+status,2+status,0]
  3448                           ;___xxtofl@sign stored from wreg
  3449  0AE2  1283               	bcf	3,5	;RP0=0, select bank0
  3450  0AE3  1303               	bcf	3,6	;RP1=0, select bank0
  3451  0AE4  00A8               	movwf	___xxtofl@sign
  3452  0AE5                     l2733:
  3453  0AE5  0828               	movf	___xxtofl@sign,w
  3454  0AE6  1903               	btfsc	3,2
  3455  0AE7  2AE9               	goto	u3311
  3456  0AE8  2AEA               	goto	u3310
  3457  0AE9                     u3311:
  3458  0AE9  2AFE               	goto	l2739
  3459  0AEA                     u3310:
  3460  0AEA                     l2735:
  3461  0AEA  1FA3               	btfss	___xxtofl@val+3,7
  3462  0AEB  2AED               	goto	u3321
  3463  0AEC  2AEE               	goto	u3320
  3464  0AED                     u3321:
  3465  0AED  2AFE               	goto	l2739
  3466  0AEE                     u3320:
  3467  0AEE                     l2737:
  3468  0AEE  0920               	comf	___xxtofl@val,w
  3469  0AEF  00AA               	movwf	___xxtofl@arg
  3470  0AF0  0921               	comf	___xxtofl@val+1,w
  3471  0AF1  00AB               	movwf	___xxtofl@arg+1
  3472  0AF2  0922               	comf	___xxtofl@val+2,w
  3473  0AF3  00AC               	movwf	___xxtofl@arg+2
  3474  0AF4  0923               	comf	___xxtofl@val+3,w
  3475  0AF5  00AD               	movwf	___xxtofl@arg+3
  3476  0AF6  0AAA               	incf	___xxtofl@arg,f
  3477  0AF7  1903               	skipnz
  3478  0AF8  0AAB               	incf	___xxtofl@arg+1,f
  3479  0AF9  1903               	skipnz
  3480  0AFA  0AAC               	incf	___xxtofl@arg+2,f
  3481  0AFB  1903               	skipnz
  3482  0AFC  0AAD               	incf	___xxtofl@arg+3,f
  3483  0AFD  2B06               	goto	l808
  3484  0AFE                     l2739:
  3485  0AFE  0823               	movf	___xxtofl@val+3,w
  3486  0AFF  00AD               	movwf	___xxtofl@arg+3
  3487  0B00  0822               	movf	___xxtofl@val+2,w
  3488  0B01  00AC               	movwf	___xxtofl@arg+2
  3489  0B02  0821               	movf	___xxtofl@val+1,w
  3490  0B03  00AB               	movwf	___xxtofl@arg+1
  3491  0B04  0820               	movf	___xxtofl@val,w
  3492  0B05  00AA               	movwf	___xxtofl@arg
  3493  0B06                     l808:
  3494  0B06  0823               	movf	___xxtofl@val+3,w
  3495  0B07  0422               	iorwf	___xxtofl@val+2,w
  3496  0B08  0421               	iorwf	___xxtofl@val+1,w
  3497  0B09  0420               	iorwf	___xxtofl@val,w
  3498  0B0A  1D03               	skipz
  3499  0B0B  2B0D               	goto	u3331
  3500  0B0C  2B0E               	goto	u3330
  3501  0B0D                     u3331:
  3502  0B0D  2B17               	goto	l2745
  3503  0B0E                     u3330:
  3504  0B0E                     l2741:
  3505  0B0E  3000               	movlw	0
  3506  0B0F  00A3               	movwf	?___xxtofl+3
  3507  0B10  3000               	movlw	0
  3508  0B11  00A2               	movwf	?___xxtofl+2
  3509  0B12  3000               	movlw	0
  3510  0B13  00A1               	movwf	?___xxtofl+1
  3511  0B14  3000               	movlw	0
  3512  0B15  00A0               	movwf	?___xxtofl
  3513  0B16  2B9D               	goto	l810
  3514  0B17                     l2745:
  3515  0B17  3096               	movlw	150
  3516  0B18  00A4               	movwf	??___xxtofl
  3517  0B19  0824               	movf	??___xxtofl,w
  3518  0B1A  00A9               	movwf	___xxtofl@exp
  3519  0B1B  2B29               	goto	l2749
  3520  0B1C                     l2747:
  3521  0B1C  3001               	movlw	1
  3522  0B1D  00A4               	movwf	??___xxtofl
  3523  0B1E  0824               	movf	??___xxtofl,w
  3524  0B1F  07A9               	addwf	___xxtofl@exp,f
  3525  0B20  3001               	movlw	1
  3526  0B21                     u3345:
  3527  0B21  1003               	clrc
  3528  0B22  0CAD               	rrf	___xxtofl@arg+3,f
  3529  0B23  0CAC               	rrf	___xxtofl@arg+2,f
  3530  0B24  0CAB               	rrf	___xxtofl@arg+1,f
  3531  0B25  0CAA               	rrf	___xxtofl@arg,f
  3532  0B26  3EFF               	addlw	-1
  3533  0B27  1D03               	skipz
  3534  0B28  2B21               	goto	u3345
  3535  0B29                     l2749:
  3536  0B29  30FE               	movlw	254
  3537  0B2A  052D               	andwf	___xxtofl@arg+3,w
  3538  0B2B  1D03               	btfss	3,2
  3539  0B2C  2B2E               	goto	u3351
  3540  0B2D  2B2F               	goto	u3350
  3541  0B2E                     u3351:
  3542  0B2E  2B1C               	goto	l2747
  3543  0B2F                     u3350:
  3544  0B2F  2B4B               	goto	l814
  3545  0B30                     l2751:
  3546  0B30  3001               	movlw	1
  3547  0B31  00A4               	movwf	??___xxtofl
  3548  0B32  0824               	movf	??___xxtofl,w
  3549  0B33  07A9               	addwf	___xxtofl@exp,f
  3550  0B34                     l2753:
  3551  0B34  3001               	movlw	1
  3552  0B35  07AA               	addwf	___xxtofl@arg,f
  3553  0B36  3000               	movlw	0
  3554  0B37  1803               	skipnc
  3555  0B38  3001               	movlw	1
  3556  0B39  07AB               	addwf	___xxtofl@arg+1,f
  3557  0B3A  3000               	movlw	0
  3558  0B3B  1803               	skipnc
  3559  0B3C  3001               	movlw	1
  3560  0B3D  07AC               	addwf	___xxtofl@arg+2,f
  3561  0B3E  3000               	movlw	0
  3562  0B3F  1803               	skipnc
  3563  0B40  3001               	movlw	1
  3564  0B41  07AD               	addwf	___xxtofl@arg+3,f
  3565  0B42                     l2755:
  3566  0B42  3001               	movlw	1
  3567  0B43                     u3365:
  3568  0B43  1003               	clrc
  3569  0B44  0CAD               	rrf	___xxtofl@arg+3,f
  3570  0B45  0CAC               	rrf	___xxtofl@arg+2,f
  3571  0B46  0CAB               	rrf	___xxtofl@arg+1,f
  3572  0B47  0CAA               	rrf	___xxtofl@arg,f
  3573  0B48  3EFF               	addlw	-1
  3574  0B49  1D03               	skipz
  3575  0B4A  2B43               	goto	u3365
  3576  0B4B                     l814:
  3577  0B4B  30FF               	movlw	255
  3578  0B4C  052D               	andwf	___xxtofl@arg+3,w
  3579  0B4D  1D03               	btfss	3,2
  3580  0B4E  2B50               	goto	u3371
  3581  0B4F  2B51               	goto	u3370
  3582  0B50                     u3371:
  3583  0B50  2B30               	goto	l2751
  3584  0B51                     u3370:
  3585  0B51  2B5D               	goto	l2759
  3586  0B52                     l2757:
  3587  0B52  3001               	movlw	1
  3588  0B53  02A9               	subwf	___xxtofl@exp,f
  3589  0B54  3001               	movlw	1
  3590  0B55  00A4               	movwf	??___xxtofl
  3591  0B56                     u3385:
  3592  0B56  1003               	clrc
  3593  0B57  0DAA               	rlf	___xxtofl@arg,f
  3594  0B58  0DAB               	rlf	___xxtofl@arg+1,f
  3595  0B59  0DAC               	rlf	___xxtofl@arg+2,f
  3596  0B5A  0DAD               	rlf	___xxtofl@arg+3,f
  3597  0B5B  0BA4               	decfsz	??___xxtofl,f
  3598  0B5C  2B56               	goto	u3385
  3599  0B5D                     l2759:
  3600  0B5D  1BAC               	btfsc	___xxtofl@arg+2,7
  3601  0B5E  2B60               	goto	u3391
  3602  0B5F  2B61               	goto	u3390
  3603  0B60                     u3391:
  3604  0B60  2B67               	goto	l821
  3605  0B61                     u3390:
  3606  0B61                     l2761:
  3607  0B61  3002               	movlw	2
  3608  0B62  0229               	subwf	___xxtofl@exp,w
  3609  0B63  1803               	skipnc
  3610  0B64  2B66               	goto	u3401
  3611  0B65  2B67               	goto	u3400
  3612  0B66                     u3401:
  3613  0B66  2B52               	goto	l2757
  3614  0B67                     u3400:
  3615  0B67                     l821:
  3616  0B67  1829               	btfsc	___xxtofl@exp,0
  3617  0B68  2B6A               	goto	u3411
  3618  0B69  2B6B               	goto	u3410
  3619  0B6A                     u3411:
  3620  0B6A  2B73               	goto	l822
  3621  0B6B                     u3410:
  3622  0B6B                     l2763:
  3623  0B6B  30FF               	movlw	255
  3624  0B6C  05AA               	andwf	___xxtofl@arg,f
  3625  0B6D  30FF               	movlw	255
  3626  0B6E  05AB               	andwf	___xxtofl@arg+1,f
  3627  0B6F  307F               	movlw	127
  3628  0B70  05AC               	andwf	___xxtofl@arg+2,f
  3629  0B71  30FF               	movlw	255
  3630  0B72  05AD               	andwf	___xxtofl@arg+3,f
  3631  0B73                     l822:
  3632  0B73  1003               	clrc
  3633  0B74  0CA9               	rrf	___xxtofl@exp,f
  3634  0B75                     l2765:
  3635  0B75  0829               	movf	___xxtofl@exp,w
  3636  0B76  00A4               	movwf	??___xxtofl
  3637  0B77  01A5               	clrf	??___xxtofl+1
  3638  0B78  01A6               	clrf	??___xxtofl+2
  3639  0B79  01A7               	clrf	??___xxtofl+3
  3640  0B7A  3018               	movlw	24
  3641  0B7B                     u3425:
  3642  0B7B  1003               	clrc
  3643  0B7C  0DA4               	rlf	??___xxtofl,f
  3644  0B7D  0DA5               	rlf	??___xxtofl+1,f
  3645  0B7E  0DA6               	rlf	??___xxtofl+2,f
  3646  0B7F  0DA7               	rlf	??___xxtofl+3,f
  3647  0B80                     u3420:
  3648  0B80  3EFF               	addlw	-1
  3649  0B81  1D03               	skipz
  3650  0B82  2B7B               	goto	u3425
  3651  0B83  0824               	movf	??___xxtofl,w
  3652  0B84  04AA               	iorwf	___xxtofl@arg,f
  3653  0B85  0825               	movf	??___xxtofl+1,w
  3654  0B86  04AB               	iorwf	___xxtofl@arg+1,f
  3655  0B87  0826               	movf	??___xxtofl+2,w
  3656  0B88  04AC               	iorwf	___xxtofl@arg+2,f
  3657  0B89  0827               	movf	??___xxtofl+3,w
  3658  0B8A  04AD               	iorwf	___xxtofl@arg+3,f
  3659  0B8B                     l2767:
  3660  0B8B  0828               	movf	___xxtofl@sign,w
  3661  0B8C  1903               	btfsc	3,2
  3662  0B8D  2B8F               	goto	u3431
  3663  0B8E  2B90               	goto	u3430
  3664  0B8F                     u3431:
  3665  0B8F  2B95               	goto	l2773
  3666  0B90                     u3430:
  3667  0B90                     l2769:
  3668  0B90  1FA3               	btfss	___xxtofl@val+3,7
  3669  0B91  2B93               	goto	u3441
  3670  0B92  2B94               	goto	u3440
  3671  0B93                     u3441:
  3672  0B93  2B95               	goto	l2773
  3673  0B94                     u3440:
  3674  0B94                     l2771:
  3675  0B94  17AD               	bsf	___xxtofl@arg+3,7
  3676  0B95                     l2773:
  3677  0B95  082D               	movf	___xxtofl@arg+3,w
  3678  0B96  00A3               	movwf	?___xxtofl+3
  3679  0B97  082C               	movf	___xxtofl@arg+2,w
  3680  0B98  00A2               	movwf	?___xxtofl+2
  3681  0B99  082B               	movf	___xxtofl@arg+1,w
  3682  0B9A  00A1               	movwf	?___xxtofl+1
  3683  0B9B  082A               	movf	___xxtofl@arg,w
  3684  0B9C  00A0               	movwf	?___xxtofl
  3685  0B9D                     l810:
  3686  0B9D  0008               	return
  3687  0B9E                     __end_of___xxtofl:
  3688                           
  3689                           	psect	text11
  3690  0A50                     __ptext11:	
  3691 ;; *************** function ___fltol *****************
  3692 ;; Defined at:
  3693 ;;		line 43 in file "C:\Program Files\Microchip\xc8\v2.35\pic\sources\c90\common\fltol.c"
  3694 ;; Parameters:    Size  Location     Type
  3695 ;;  f1              4    8[BANK1 ] unsigned char 
  3696 ;; Auto vars:     Size  Location     Type
  3697 ;;  exp1            1   79[BANK0 ] unsigned char 
  3698 ;;  sign1           1   78[BANK0 ] unsigned char 
  3699 ;; Return value:  Size  Location     Type
  3700 ;;                  4    8[BANK1 ] long 
  3701 ;; Registers used:
  3702 ;;		wreg, status,2, status,0
  3703 ;; Tracked objects:
  3704 ;;		On entry : 0/0
  3705 ;;		On exit  : 0/0
  3706 ;;		Unchanged: 0/0
  3707 ;; Data sizes:     COMMON   BANK0   BANK1   BANK3   BANK2
  3708 ;;      Params:         0       0       4       0       0
  3709 ;;      Locals:         0       2       0       0       0
  3710 ;;      Temps:          0       0       5       0       0
  3711 ;;      Totals:         0       2       9       0       0
  3712 ;;Total ram usage:       11 bytes
  3713 ;; Hardware stack levels used: 1
  3714 ;; Hardware stack levels required when called: 2
  3715 ;; This function calls:
  3716 ;;		Nothing
  3717 ;; This function is called by:
  3718 ;;		_map
  3719 ;; This function uses a non-reentrant model
  3720 ;;
  3721                           
  3722  0A50                     ___fltol:	
  3723                           ;psect for function ___fltol
  3724                           
  3725  0A50                     l2173:	
  3726                           ;incstack = 0
  3727                           ; Regs used in ___fltol: [wreg+status,2+status,0]
  3728                           
  3729  0A50  1003               	clrc
  3730  0A51  1683               	bsf	3,5	;RP0=1, select bank1
  3731  0A52  1303               	bcf	3,6	;RP1=0, select bank1
  3732  0A53  0D2A               	rlf	(___fltol@f1+2)^(0+128),w
  3733  0A54  0D2B               	rlf	(___fltol@f1+3)^(0+128),w
  3734  0A55  00AC               	movwf	??___fltol^(0+128)
  3735  0A56  082C               	movf	??___fltol^(0+128),w
  3736  0A57  1283               	bcf	3,5	;RP0=0, select bank0
  3737  0A58  1303               	bcf	3,6	;RP1=0, select bank0
  3738  0A59  00EF               	movwf	___fltol@exp1
  3739  0A5A  086F               	movf	___fltol@exp1,w
  3740  0A5B  1D03               	btfss	3,2
  3741  0A5C  2A5E               	goto	u1961
  3742  0A5D  2A5F               	goto	u1960
  3743  0A5E                     u1961:
  3744  0A5E  2A6A               	goto	l2179
  3745  0A5F                     u1960:
  3746  0A5F                     l2175:
  3747  0A5F  3000               	movlw	0
  3748  0A60  1683               	bsf	3,5	;RP0=1, select bank1
  3749  0A61  1303               	bcf	3,6	;RP1=0, select bank1
  3750  0A62  00AB               	movwf	(?___fltol+3)^(0+128)
  3751  0A63  3000               	movlw	0
  3752  0A64  00AA               	movwf	(?___fltol+2)^(0+128)
  3753  0A65  3000               	movlw	0
  3754  0A66  00A9               	movwf	(?___fltol+1)^(0+128)
  3755  0A67  3000               	movlw	0
  3756  0A68  00A8               	movwf	?___fltol^(0+128)
  3757  0A69  2AE1               	goto	l561
  3758  0A6A                     l2179:
  3759  0A6A  1683               	bsf	3,5	;RP0=1, select bank1
  3760  0A6B  1303               	bcf	3,6	;RP1=0, select bank1
  3761  0A6C  0828               	movf	___fltol@f1^(0+128),w
  3762  0A6D  00AC               	movwf	??___fltol^(0+128)
  3763  0A6E  0829               	movf	(___fltol@f1+1)^(0+128),w
  3764  0A6F  00AD               	movwf	(??___fltol^(0+128)+1)
  3765  0A70  082A               	movf	(___fltol@f1+2)^(0+128),w
  3766  0A71  00AE               	movwf	(??___fltol^(0+128)+2)
  3767  0A72  082B               	movf	(___fltol@f1+3)^(0+128),w
  3768  0A73  00AF               	movwf	(??___fltol^(0+128)+3)
  3769  0A74  301F               	movlw	31
  3770  0A75                     u1975:
  3771  0A75  1003               	clrc
  3772  0A76  0CAF               	rrf	(??___fltol^(0+128)+3),f
  3773  0A77  0CAE               	rrf	(??___fltol^(0+128)+2),f
  3774  0A78  0CAD               	rrf	(??___fltol^(0+128)+1),f
  3775  0A79  0CAC               	rrf	??___fltol^(0+128),f
  3776  0A7A                     u1970:
  3777  0A7A  3EFF               	addlw	-1
  3778  0A7B  1D03               	skipz
  3779  0A7C  2A75               	goto	u1975
  3780  0A7D  082C               	movf	??___fltol^(0+128),w
  3781  0A7E  00B0               	movwf	(??___fltol+4)^(0+128)
  3782  0A7F  0830               	movf	(??___fltol+4)^(0+128),w
  3783  0A80  1283               	bcf	3,5	;RP0=0, select bank0
  3784  0A81  1303               	bcf	3,6	;RP1=0, select bank0
  3785  0A82  00EE               	movwf	___fltol@sign1
  3786  0A83                     l2181:
  3787  0A83  1683               	bsf	3,5	;RP0=1, select bank1
  3788  0A84  1303               	bcf	3,6	;RP1=0, select bank1
  3789  0A85  17AA               	bsf	(___fltol@f1^(0+128)+2),7
  3790  0A86                     l2183:
  3791  0A86  30FF               	movlw	255
  3792  0A87  05A8               	andwf	___fltol@f1^(0+128),f
  3793  0A88  30FF               	movlw	255
  3794  0A89  05A9               	andwf	(___fltol@f1+1)^(0+128),f
  3795  0A8A  30FF               	movlw	255
  3796  0A8B  05AA               	andwf	(___fltol@f1+2)^(0+128),f
  3797  0A8C  3000               	movlw	0
  3798  0A8D  05AB               	andwf	(___fltol@f1+3)^(0+128),f
  3799  0A8E                     l2185:
  3800  0A8E  3096               	movlw	150
  3801  0A8F  1283               	bcf	3,5	;RP0=0, select bank0
  3802  0A90  1303               	bcf	3,6	;RP1=0, select bank0
  3803  0A91  02EF               	subwf	___fltol@exp1,f
  3804  0A92                     l2187:
  3805  0A92  1FEF               	btfss	___fltol@exp1,7
  3806  0A93  2A95               	goto	u1981
  3807  0A94  2A96               	goto	u1980
  3808  0A95                     u1981:
  3809  0A95  2AB4               	goto	l2197
  3810  0A96                     u1980:
  3811  0A96                     l2189:
  3812  0A96  086F               	movf	___fltol@exp1,w
  3813  0A97  3A80               	xorlw	128
  3814  0A98  3E97               	addlw	151
  3815  0A99  1803               	skipnc
  3816  0A9A  2A9C               	goto	u1991
  3817  0A9B  2A9D               	goto	u1990
  3818  0A9C                     u1991:
  3819  0A9C  2A9E               	goto	l2195
  3820  0A9D                     u1990:
  3821  0A9D  2A5F               	goto	l2175
  3822  0A9E                     l2195:
  3823  0A9E  3001               	movlw	1
  3824  0A9F                     u2005:
  3825  0A9F  1003               	clrc
  3826  0AA0  1683               	bsf	3,5	;RP0=1, select bank1
  3827  0AA1  1303               	bcf	3,6	;RP1=0, select bank1
  3828  0AA2  0CAB               	rrf	(___fltol@f1+3)^(0+128),f
  3829  0AA3  0CAA               	rrf	(___fltol@f1+2)^(0+128),f
  3830  0AA4  0CA9               	rrf	(___fltol@f1+1)^(0+128),f
  3831  0AA5  0CA8               	rrf	___fltol@f1^(0+128),f
  3832  0AA6  3EFF               	addlw	-1
  3833  0AA7  1D03               	skipz
  3834  0AA8  2A9F               	goto	u2005
  3835  0AA9  3001               	movlw	1
  3836  0AAA  00AC               	movwf	??___fltol^(0+128)
  3837  0AAB  082C               	movf	??___fltol^(0+128),w
  3838  0AAC  1283               	bcf	3,5	;RP0=0, select bank0
  3839  0AAD  1303               	bcf	3,6	;RP1=0, select bank0
  3840  0AAE  07EF               	addwf	___fltol@exp1,f
  3841  0AAF  1D03               	btfss	3,2
  3842  0AB0  2AB2               	goto	u2011
  3843  0AB1  2AB3               	goto	u2010
  3844  0AB2                     u2011:
  3845  0AB2  2A9E               	goto	l2195
  3846  0AB3                     u2010:
  3847  0AB3  2ACF               	goto	l2205
  3848  0AB4                     l2197:
  3849  0AB4  3020               	movlw	32
  3850  0AB5  026F               	subwf	___fltol@exp1,w
  3851  0AB6  1C03               	skipc
  3852  0AB7  2AB9               	goto	u2021
  3853  0AB8  2ABA               	goto	u2020
  3854  0AB9                     u2021:
  3855  0AB9  2ACA               	goto	l568
  3856  0ABA                     u2020:
  3857  0ABA  2A5F               	goto	l2175
  3858  0ABB                     l2203:
  3859  0ABB  3001               	movlw	1
  3860  0ABC  1683               	bsf	3,5	;RP0=1, select bank1
  3861  0ABD  1303               	bcf	3,6	;RP1=0, select bank1
  3862  0ABE  00AC               	movwf	??___fltol^(0+128)
  3863  0ABF                     u2035:
  3864  0ABF  1003               	clrc
  3865  0AC0  0DA8               	rlf	___fltol@f1^(0+128),f
  3866  0AC1  0DA9               	rlf	(___fltol@f1+1)^(0+128),f
  3867  0AC2  0DAA               	rlf	(___fltol@f1+2)^(0+128),f
  3868  0AC3  0DAB               	rlf	(___fltol@f1+3)^(0+128),f
  3869  0AC4  0BAC               	decfsz	??___fltol^(0+128),f
  3870  0AC5  2ABF               	goto	u2035
  3871  0AC6  3001               	movlw	1
  3872  0AC7  1283               	bcf	3,5	;RP0=0, select bank0
  3873  0AC8  1303               	bcf	3,6	;RP1=0, select bank0
  3874  0AC9  02EF               	subwf	___fltol@exp1,f
  3875  0ACA                     l568:
  3876  0ACA  086F               	movf	___fltol@exp1,w
  3877  0ACB  1D03               	btfss	3,2
  3878  0ACC  2ACE               	goto	u2041
  3879  0ACD  2ACF               	goto	u2040
  3880  0ACE                     u2041:
  3881  0ACE  2ABB               	goto	l2203
  3882  0ACF                     u2040:
  3883  0ACF                     l2205:
  3884  0ACF  086E               	movf	___fltol@sign1,w
  3885  0AD0  1903               	btfsc	3,2
  3886  0AD1  2AD3               	goto	u2051
  3887  0AD2  2AD4               	goto	u2050
  3888  0AD3                     u2051:
  3889  0AD3  2AE1               	goto	l571
  3890  0AD4                     u2050:
  3891  0AD4                     l2207:
  3892  0AD4  1683               	bsf	3,5	;RP0=1, select bank1
  3893  0AD5  1303               	bcf	3,6	;RP1=0, select bank1
  3894  0AD6  09A8               	comf	___fltol@f1^(0+128),f
  3895  0AD7  09A9               	comf	(___fltol@f1+1)^(0+128),f
  3896  0AD8  09AA               	comf	(___fltol@f1+2)^(0+128),f
  3897  0AD9  09AB               	comf	(___fltol@f1+3)^(0+128),f
  3898  0ADA  0AA8               	incf	___fltol@f1^(0+128),f
  3899  0ADB  1903               	skipnz
  3900  0ADC  0AA9               	incf	(___fltol@f1+1)^(0+128),f
  3901  0ADD  1903               	skipnz
  3902  0ADE  0AAA               	incf	(___fltol@f1+2)^(0+128),f
  3903  0ADF  1903               	skipnz
  3904  0AE0  0AAB               	incf	(___fltol@f1+3)^(0+128),f
  3905  0AE1                     l571:
  3906  0AE1                     l561:
  3907  0AE1  0008               	return
  3908  0AE2                     __end_of___fltol:
  3909                           
  3910                           	psect	text12
  3911  038A                     __ptext12:	
  3912 ;; *************** function ___flmul *****************
  3913 ;; Defined at:
  3914 ;;		line 8 in file "C:\Program Files\Microchip\xc8\v2.35\pic\sources\c90\common\sprcmul.c"
  3915 ;; Parameters:    Size  Location     Type
  3916 ;;  b               4   40[BANK0 ] long 
  3917 ;;  a               4   44[BANK0 ] long 
  3918 ;; Auto vars:     Size  Location     Type
  3919 ;;  prod            4   60[BANK0 ] struct .
  3920 ;;  grs             4   54[BANK0 ] unsigned long 
  3921 ;;  temp            2   64[BANK0 ] struct .
  3922 ;;  bexp            1   59[BANK0 ] unsigned char 
  3923 ;;  aexp            1   58[BANK0 ] unsigned char 
  3924 ;;  sign            1   53[BANK0 ] unsigned char 
  3925 ;; Return value:  Size  Location     Type
  3926 ;;                  4   40[BANK0 ] unsigned char 
  3927 ;; Registers used:
  3928 ;;		wreg, status,2, status,0, btemp+1, pclath, cstack
  3929 ;; Tracked objects:
  3930 ;;		On entry : 0/0
  3931 ;;		On exit  : 0/0
  3932 ;;		Unchanged: 0/0
  3933 ;; Data sizes:     COMMON   BANK0   BANK1   BANK3   BANK2
  3934 ;;      Params:         0       8       0       0       0
  3935 ;;      Locals:         0      13       0       0       0
  3936 ;;      Temps:          0       5       0       0       0
  3937 ;;      Totals:         0      26       0       0       0
  3938 ;;Total ram usage:       26 bytes
  3939 ;; Hardware stack levels used: 1
  3940 ;; Hardware stack levels required when called: 3
  3941 ;; This function calls:
  3942 ;;		__Umul8_16
  3943 ;; This function is called by:
  3944 ;;		_map
  3945 ;; This function uses a non-reentrant model
  3946 ;;
  3947                           
  3948  038A                     ___flmul:	
  3949                           ;psect for function ___flmul
  3950                           
  3951  038A                     l2593:	
  3952                           ;incstack = 0
  3953                           ; Regs used in ___flmul: [wreg+status,2+status,0+btemp+1+pclath+cstack]
  3954                           
  3955  038A  1283               	bcf	3,5	;RP0=0, select bank0
  3956  038B  1303               	bcf	3,6	;RP1=0, select bank0
  3957  038C  084B               	movf	___flmul@b+3,w
  3958  038D  3980               	andlw	128
  3959  038E  00D0               	movwf	??___flmul
  3960  038F  0850               	movf	??___flmul,w
  3961  0390  00D5               	movwf	___flmul@sign
  3962  0391                     l2595:
  3963  0391  084B               	movf	___flmul@b+3,w
  3964  0392  00D0               	movwf	??___flmul
  3965  0393  0750               	addwf	??___flmul,w
  3966  0394  00D1               	movwf	??___flmul+1
  3967  0395  0851               	movf	??___flmul+1,w
  3968  0396  00DB               	movwf	___flmul@bexp
  3969  0397                     l2597:
  3970  0397  1FCA               	btfss	___flmul@b+2,7
  3971  0398  2B9A               	goto	u2941
  3972  0399  2B9B               	goto	u2940
  3973  039A                     u2941:
  3974  039A  2B9C               	goto	l2601
  3975  039B                     u2940:
  3976  039B                     l2599:
  3977  039B  145B               	bsf	___flmul@bexp,0
  3978  039C                     l2601:
  3979  039C  085B               	movf	___flmul@bexp,w
  3980  039D  1903               	btfsc	3,2
  3981  039E  2BA0               	goto	u2951
  3982  039F  2BA1               	goto	u2950
  3983  03A0                     u2951:
  3984  03A0  2BB0               	goto	l2609
  3985  03A1                     u2950:
  3986  03A1                     l2603:
  3987  03A1  0A5B               	incf	___flmul@bexp,w
  3988  03A2  1D03               	btfss	3,2
  3989  03A3  2BA5               	goto	u2961
  3990  03A4  2BA6               	goto	u2960
  3991  03A5                     u2961:
  3992  03A5  2BAE               	goto	l2607
  3993  03A6                     u2960:
  3994  03A6                     l2605:
  3995  03A6  3000               	movlw	0
  3996  03A7  00CB               	movwf	___flmul@b+3
  3997  03A8  3000               	movlw	0
  3998  03A9  00CA               	movwf	___flmul@b+2
  3999  03AA  3000               	movlw	0
  4000  03AB  00C9               	movwf	___flmul@b+1
  4001  03AC  3000               	movlw	0
  4002  03AD  00C8               	movwf	___flmul@b
  4003  03AE                     l2607:
  4004  03AE  17CA               	bsf	___flmul@b+2,7
  4005  03AF  2BB8               	goto	l2611
  4006  03B0                     l2609:
  4007  03B0  3000               	movlw	0
  4008  03B1  00CB               	movwf	___flmul@b+3
  4009  03B2  3000               	movlw	0
  4010  03B3  00CA               	movwf	___flmul@b+2
  4011  03B4  3000               	movlw	0
  4012  03B5  00C9               	movwf	___flmul@b+1
  4013  03B6  3000               	movlw	0
  4014  03B7  00C8               	movwf	___flmul@b
  4015  03B8                     l2611:
  4016  03B8  084F               	movf	___flmul@a+3,w
  4017  03B9  3980               	andlw	128
  4018  03BA  00D0               	movwf	??___flmul
  4019  03BB  0850               	movf	??___flmul,w
  4020  03BC  06D5               	xorwf	___flmul@sign,f
  4021  03BD                     l2613:
  4022  03BD  084F               	movf	___flmul@a+3,w
  4023  03BE  00D0               	movwf	??___flmul
  4024  03BF  0750               	addwf	??___flmul,w
  4025  03C0  00D1               	movwf	??___flmul+1
  4026  03C1  0851               	movf	??___flmul+1,w
  4027  03C2  00DA               	movwf	___flmul@aexp
  4028  03C3                     l2615:
  4029  03C3  1FCE               	btfss	___flmul@a+2,7
  4030  03C4  2BC6               	goto	u2971
  4031  03C5  2BC7               	goto	u2970
  4032  03C6                     u2971:
  4033  03C6  2BC8               	goto	l2619
  4034  03C7                     u2970:
  4035  03C7                     l2617:
  4036  03C7  145A               	bsf	___flmul@aexp,0
  4037  03C8                     l2619:
  4038  03C8  085A               	movf	___flmul@aexp,w
  4039  03C9  1903               	btfsc	3,2
  4040  03CA  2BCC               	goto	u2981
  4041  03CB  2BCD               	goto	u2980
  4042  03CC                     u2981:
  4043  03CC  2BDC               	goto	l2627
  4044  03CD                     u2980:
  4045  03CD                     l2621:
  4046  03CD  0A5A               	incf	___flmul@aexp,w
  4047  03CE  1D03               	btfss	3,2
  4048  03CF  2BD1               	goto	u2991
  4049  03D0  2BD2               	goto	u2990
  4050  03D1                     u2991:
  4051  03D1  2BDA               	goto	l2625
  4052  03D2                     u2990:
  4053  03D2                     l2623:
  4054  03D2  3000               	movlw	0
  4055  03D3  00CF               	movwf	___flmul@a+3
  4056  03D4  3000               	movlw	0
  4057  03D5  00CE               	movwf	___flmul@a+2
  4058  03D6  3000               	movlw	0
  4059  03D7  00CD               	movwf	___flmul@a+1
  4060  03D8  3000               	movlw	0
  4061  03D9  00CC               	movwf	___flmul@a
  4062  03DA                     l2625:
  4063  03DA  17CE               	bsf	___flmul@a+2,7
  4064  03DB  2BE4               	goto	l2629
  4065  03DC                     l2627:
  4066  03DC  3000               	movlw	0
  4067  03DD  00CF               	movwf	___flmul@a+3
  4068  03DE  3000               	movlw	0
  4069  03DF  00CE               	movwf	___flmul@a+2
  4070  03E0  3000               	movlw	0
  4071  03E1  00CD               	movwf	___flmul@a+1
  4072  03E2  3000               	movlw	0
  4073  03E3  00CC               	movwf	___flmul@a
  4074  03E4                     l2629:
  4075  03E4  085A               	movf	___flmul@aexp,w
  4076  03E5  1903               	btfsc	3,2
  4077  03E6  2BE8               	goto	u3001
  4078  03E7  2BE9               	goto	u3000
  4079  03E8                     u3001:
  4080  03E8  2BEE               	goto	l2633
  4081  03E9                     u3000:
  4082  03E9                     l2631:
  4083  03E9  085B               	movf	___flmul@bexp,w
  4084  03EA  1D03               	btfss	3,2
  4085  03EB  2BED               	goto	u3011
  4086  03EC  2BEE               	goto	u3010
  4087  03ED                     u3011:
  4088  03ED  2BF7               	goto	l2637
  4089  03EE                     u3010:
  4090  03EE                     l2633:
  4091  03EE  3000               	movlw	0
  4092  03EF  00CB               	movwf	?___flmul+3
  4093  03F0  3000               	movlw	0
  4094  03F1  00CA               	movwf	?___flmul+2
  4095  03F2  3000               	movlw	0
  4096  03F3  00C9               	movwf	?___flmul+1
  4097  03F4  3000               	movlw	0
  4098  03F5  00C8               	movwf	?___flmul
  4099  03F6  2EEA               	goto	l764
  4100  03F7                     l2637:
  4101  03F7  0848               	movf	___flmul@b,w
  4102  03F8  00D0               	movwf	??___flmul
  4103  03F9  0850               	movf	??___flmul,w
  4104  03FA  00A0               	movwf	__Umul8_16@multiplicand
  4105  03FB  084E               	movf	___flmul@a+2,w
  4106  03FC  120A  118A  27D5  120A  118A  	fcall	__Umul8_16
  4107  0401  1283               	bcf	3,5	;RP0=0, select bank0
  4108  0402  1303               	bcf	3,6	;RP1=0, select bank0
  4109  0403  0821               	movf	?__Umul8_16+1,w
  4110  0404  00E1               	movwf	___flmul@temp+1
  4111  0405  0820               	movf	?__Umul8_16,w
  4112  0406  00E0               	movwf	___flmul@temp
  4113  0407                     l2639:
  4114  0407  0860               	movf	___flmul@temp,w
  4115  0408  00D0               	movwf	??___flmul
  4116  0409  01D1               	clrf	??___flmul+1
  4117  040A  01D2               	clrf	??___flmul+2
  4118  040B  01D3               	clrf	??___flmul+3
  4119  040C  0853               	movf	??___flmul+3,w
  4120  040D  00D9               	movwf	___flmul@grs+3
  4121  040E  0852               	movf	??___flmul+2,w
  4122  040F  00D8               	movwf	___flmul@grs+2
  4123  0410  0851               	movf	??___flmul+1,w
  4124  0411  00D7               	movwf	___flmul@grs+1
  4125  0412  0850               	movf	??___flmul,w
  4126  0413  00D6               	movwf	___flmul@grs
  4127  0414                     l2641:
  4128  0414  0861               	movf	___flmul@temp+1,w
  4129  0415  00D0               	movwf	??___flmul
  4130  0416  01D1               	clrf	??___flmul+1
  4131  0417  01D2               	clrf	??___flmul+2
  4132  0418  01D3               	clrf	??___flmul+3
  4133  0419  0853               	movf	??___flmul+3,w
  4134  041A  00DF               	movwf	___flmul@prod+3
  4135  041B  0852               	movf	??___flmul+2,w
  4136  041C  00DE               	movwf	___flmul@prod+2
  4137  041D  0851               	movf	??___flmul+1,w
  4138  041E  00DD               	movwf	___flmul@prod+1
  4139  041F  0850               	movf	??___flmul,w
  4140  0420  00DC               	movwf	___flmul@prod
  4141  0421  0849               	movf	___flmul@b+1,w
  4142  0422  00D0               	movwf	??___flmul
  4143  0423  0850               	movf	??___flmul,w
  4144  0424  00A0               	movwf	__Umul8_16@multiplicand
  4145  0425  084D               	movf	___flmul@a+1,w
  4146  0426  120A  118A  27D5  120A  118A  	fcall	__Umul8_16
  4147  042B  1283               	bcf	3,5	;RP0=0, select bank0
  4148  042C  1303               	bcf	3,6	;RP1=0, select bank0
  4149  042D  0821               	movf	?__Umul8_16+1,w
  4150  042E  00E1               	movwf	___flmul@temp+1
  4151  042F  0820               	movf	?__Umul8_16,w
  4152  0430  00E0               	movwf	___flmul@temp
  4153  0431                     l2643:
  4154  0431  0860               	movf	___flmul@temp,w
  4155  0432  00D0               	movwf	??___flmul
  4156  0433  01D1               	clrf	??___flmul+1
  4157  0434  01D2               	clrf	??___flmul+2
  4158  0435  01D3               	clrf	??___flmul+3
  4159  0436  0850               	movf	??___flmul,w
  4160  0437  07D6               	addwf	___flmul@grs,f
  4161  0438  0851               	movf	??___flmul+1,w
  4162  0439  1103               	clrz
  4163  043A  1803               	skipnc
  4164  043B  3E01               	addlw	1
  4165  043C  1903               	skipnz
  4166  043D  2C3F               	goto	u3021
  4167  043E  07D7               	addwf	___flmul@grs+1,f
  4168  043F                     u3021:
  4169  043F  0852               	movf	??___flmul+2,w
  4170  0440  1103               	clrz
  4171  0441  1803               	skipnc
  4172  0442  3E01               	addlw	1
  4173  0443  1903               	skipnz
  4174  0444  2C46               	goto	u3022
  4175  0445  07D8               	addwf	___flmul@grs+2,f
  4176  0446                     u3022:
  4177  0446  0853               	movf	??___flmul+3,w
  4178  0447  1103               	clrz
  4179  0448  1803               	skipnc
  4180  0449  3E01               	addlw	1
  4181  044A  1903               	skipnz
  4182  044B  2C4D               	goto	u3023
  4183  044C  07D9               	addwf	___flmul@grs+3,f
  4184  044D                     u3023:
  4185  044D                     l2645:
  4186  044D  0861               	movf	___flmul@temp+1,w
  4187  044E  00D0               	movwf	??___flmul
  4188  044F  01D1               	clrf	??___flmul+1
  4189  0450  01D2               	clrf	??___flmul+2
  4190  0451  01D3               	clrf	??___flmul+3
  4191  0452  0850               	movf	??___flmul,w
  4192  0453  07DC               	addwf	___flmul@prod,f
  4193  0454  0851               	movf	??___flmul+1,w
  4194  0455  1103               	clrz
  4195  0456  1803               	skipnc
  4196  0457  3E01               	addlw	1
  4197  0458  1903               	skipnz
  4198  0459  2C5B               	goto	u3031
  4199  045A  07DD               	addwf	___flmul@prod+1,f
  4200  045B                     u3031:
  4201  045B  0852               	movf	??___flmul+2,w
  4202  045C  1103               	clrz
  4203  045D  1803               	skipnc
  4204  045E  3E01               	addlw	1
  4205  045F  1903               	skipnz
  4206  0460  2C62               	goto	u3032
  4207  0461  07DE               	addwf	___flmul@prod+2,f
  4208  0462                     u3032:
  4209  0462  0853               	movf	??___flmul+3,w
  4210  0463  1103               	clrz
  4211  0464  1803               	skipnc
  4212  0465  3E01               	addlw	1
  4213  0466  1903               	skipnz
  4214  0467  2C69               	goto	u3033
  4215  0468  07DF               	addwf	___flmul@prod+3,f
  4216  0469                     u3033:
  4217  0469  084A               	movf	___flmul@b+2,w
  4218  046A  00D0               	movwf	??___flmul
  4219  046B  0850               	movf	??___flmul,w
  4220  046C  00A0               	movwf	__Umul8_16@multiplicand
  4221  046D  084C               	movf	___flmul@a,w
  4222  046E  120A  118A  27D5  120A  118A  	fcall	__Umul8_16
  4223  0473  1283               	bcf	3,5	;RP0=0, select bank0
  4224  0474  1303               	bcf	3,6	;RP1=0, select bank0
  4225  0475  0821               	movf	?__Umul8_16+1,w
  4226  0476  00E1               	movwf	___flmul@temp+1
  4227  0477  0820               	movf	?__Umul8_16,w
  4228  0478  00E0               	movwf	___flmul@temp
  4229  0479                     l2647:
  4230  0479  0860               	movf	___flmul@temp,w
  4231  047A  00D0               	movwf	??___flmul
  4232  047B  01D1               	clrf	??___flmul+1
  4233  047C  01D2               	clrf	??___flmul+2
  4234  047D  01D3               	clrf	??___flmul+3
  4235  047E  0850               	movf	??___flmul,w
  4236  047F  07D6               	addwf	___flmul@grs,f
  4237  0480  0851               	movf	??___flmul+1,w
  4238  0481  1103               	clrz
  4239  0482  1803               	skipnc
  4240  0483  3E01               	addlw	1
  4241  0484  1903               	skipnz
  4242  0485  2C87               	goto	u3041
  4243  0486  07D7               	addwf	___flmul@grs+1,f
  4244  0487                     u3041:
  4245  0487  0852               	movf	??___flmul+2,w
  4246  0488  1103               	clrz
  4247  0489  1803               	skipnc
  4248  048A  3E01               	addlw	1
  4249  048B  1903               	skipnz
  4250  048C  2C8E               	goto	u3042
  4251  048D  07D8               	addwf	___flmul@grs+2,f
  4252  048E                     u3042:
  4253  048E  0853               	movf	??___flmul+3,w
  4254  048F  1103               	clrz
  4255  0490  1803               	skipnc
  4256  0491  3E01               	addlw	1
  4257  0492  1903               	skipnz
  4258  0493  2C95               	goto	u3043
  4259  0494  07D9               	addwf	___flmul@grs+3,f
  4260  0495                     u3043:
  4261  0495                     l2649:
  4262  0495  0861               	movf	___flmul@temp+1,w
  4263  0496  00D0               	movwf	??___flmul
  4264  0497  01D1               	clrf	??___flmul+1
  4265  0498  01D2               	clrf	??___flmul+2
  4266  0499  01D3               	clrf	??___flmul+3
  4267  049A  0850               	movf	??___flmul,w
  4268  049B  07DC               	addwf	___flmul@prod,f
  4269  049C  0851               	movf	??___flmul+1,w
  4270  049D  1103               	clrz
  4271  049E  1803               	skipnc
  4272  049F  3E01               	addlw	1
  4273  04A0  1903               	skipnz
  4274  04A1  2CA3               	goto	u3051
  4275  04A2  07DD               	addwf	___flmul@prod+1,f
  4276  04A3                     u3051:
  4277  04A3  0852               	movf	??___flmul+2,w
  4278  04A4  1103               	clrz
  4279  04A5  1803               	skipnc
  4280  04A6  3E01               	addlw	1
  4281  04A7  1903               	skipnz
  4282  04A8  2CAA               	goto	u3052
  4283  04A9  07DE               	addwf	___flmul@prod+2,f
  4284  04AA                     u3052:
  4285  04AA  0853               	movf	??___flmul+3,w
  4286  04AB  1103               	clrz
  4287  04AC  1803               	skipnc
  4288  04AD  3E01               	addlw	1
  4289  04AE  1903               	skipnz
  4290  04AF  2CB1               	goto	u3053
  4291  04B0  07DF               	addwf	___flmul@prod+3,f
  4292  04B1                     u3053:
  4293  04B1                     l2651:
  4294  04B1  3008               	movlw	8
  4295  04B2  00D0               	movwf	??___flmul
  4296  04B3                     u3065:
  4297  04B3  1003               	clrc
  4298  04B4  0DD6               	rlf	___flmul@grs,f
  4299  04B5  0DD7               	rlf	___flmul@grs+1,f
  4300  04B6  0DD8               	rlf	___flmul@grs+2,f
  4301  04B7  0DD9               	rlf	___flmul@grs+3,f
  4302  04B8  0BD0               	decfsz	??___flmul,f
  4303  04B9  2CB3               	goto	u3065
  4304  04BA                     l2653:
  4305  04BA  0849               	movf	___flmul@b+1,w
  4306  04BB  00D0               	movwf	??___flmul
  4307  04BC  0850               	movf	??___flmul,w
  4308  04BD  00A0               	movwf	__Umul8_16@multiplicand
  4309  04BE  084C               	movf	___flmul@a,w
  4310  04BF  120A  118A  27D5  120A  118A  	fcall	__Umul8_16
  4311  04C4  1283               	bcf	3,5	;RP0=0, select bank0
  4312  04C5  1303               	bcf	3,6	;RP1=0, select bank0
  4313  04C6  0821               	movf	?__Umul8_16+1,w
  4314  04C7  00E1               	movwf	___flmul@temp+1
  4315  04C8  0820               	movf	?__Umul8_16,w
  4316  04C9  00E0               	movwf	___flmul@temp
  4317  04CA                     l2655:
  4318  04CA  0860               	movf	___flmul@temp,w
  4319  04CB  00D0               	movwf	??___flmul
  4320  04CC  0861               	movf	___flmul@temp+1,w
  4321  04CD  00D1               	movwf	??___flmul+1
  4322  04CE  01D2               	clrf	??___flmul+2
  4323  04CF  01D3               	clrf	??___flmul+3
  4324  04D0  0850               	movf	??___flmul,w
  4325  04D1  07D6               	addwf	___flmul@grs,f
  4326  04D2  0851               	movf	??___flmul+1,w
  4327  04D3  1103               	clrz
  4328  04D4  1803               	skipnc
  4329  04D5  3E01               	addlw	1
  4330  04D6  1903               	skipnz
  4331  04D7  2CD9               	goto	u3071
  4332  04D8  07D7               	addwf	___flmul@grs+1,f
  4333  04D9                     u3071:
  4334  04D9  0852               	movf	??___flmul+2,w
  4335  04DA  1103               	clrz
  4336  04DB  1803               	skipnc
  4337  04DC  3E01               	addlw	1
  4338  04DD  1903               	skipnz
  4339  04DE  2CE0               	goto	u3072
  4340  04DF  07D8               	addwf	___flmul@grs+2,f
  4341  04E0                     u3072:
  4342  04E0  0853               	movf	??___flmul+3,w
  4343  04E1  1103               	clrz
  4344  04E2  1803               	skipnc
  4345  04E3  3E01               	addlw	1
  4346  04E4  1903               	skipnz
  4347  04E5  2CE7               	goto	u3073
  4348  04E6  07D9               	addwf	___flmul@grs+3,f
  4349  04E7                     u3073:
  4350  04E7                     l2657:
  4351  04E7  0848               	movf	___flmul@b,w
  4352  04E8  00D0               	movwf	??___flmul
  4353  04E9  0850               	movf	??___flmul,w
  4354  04EA  00A0               	movwf	__Umul8_16@multiplicand
  4355  04EB  084D               	movf	___flmul@a+1,w
  4356  04EC  120A  118A  27D5  120A  118A  	fcall	__Umul8_16
  4357  04F1  1283               	bcf	3,5	;RP0=0, select bank0
  4358  04F2  1303               	bcf	3,6	;RP1=0, select bank0
  4359  04F3  0821               	movf	?__Umul8_16+1,w
  4360  04F4  00E1               	movwf	___flmul@temp+1
  4361  04F5  0820               	movf	?__Umul8_16,w
  4362  04F6  00E0               	movwf	___flmul@temp
  4363  04F7                     l2659:
  4364  04F7  0860               	movf	___flmul@temp,w
  4365  04F8  00D0               	movwf	??___flmul
  4366  04F9  0861               	movf	___flmul@temp+1,w
  4367  04FA  00D1               	movwf	??___flmul+1
  4368  04FB  01D2               	clrf	??___flmul+2
  4369  04FC  01D3               	clrf	??___flmul+3
  4370  04FD  0850               	movf	??___flmul,w
  4371  04FE  07D6               	addwf	___flmul@grs,f
  4372  04FF  0851               	movf	??___flmul+1,w
  4373  0500  1103               	clrz
  4374  0501  1803               	skipnc
  4375  0502  3E01               	addlw	1
  4376  0503  1903               	skipnz
  4377  0504  2D06               	goto	u3081
  4378  0505  07D7               	addwf	___flmul@grs+1,f
  4379  0506                     u3081:
  4380  0506  0852               	movf	??___flmul+2,w
  4381  0507  1103               	clrz
  4382  0508  1803               	skipnc
  4383  0509  3E01               	addlw	1
  4384  050A  1903               	skipnz
  4385  050B  2D0D               	goto	u3082
  4386  050C  07D8               	addwf	___flmul@grs+2,f
  4387  050D                     u3082:
  4388  050D  0853               	movf	??___flmul+3,w
  4389  050E  1103               	clrz
  4390  050F  1803               	skipnc
  4391  0510  3E01               	addlw	1
  4392  0511  1903               	skipnz
  4393  0512  2D14               	goto	u3083
  4394  0513  07D9               	addwf	___flmul@grs+3,f
  4395  0514                     u3083:
  4396  0514                     l2661:
  4397  0514  3008               	movlw	8
  4398  0515  00D0               	movwf	??___flmul
  4399  0516                     u3095:
  4400  0516  1003               	clrc
  4401  0517  0DD6               	rlf	___flmul@grs,f
  4402  0518  0DD7               	rlf	___flmul@grs+1,f
  4403  0519  0DD8               	rlf	___flmul@grs+2,f
  4404  051A  0DD9               	rlf	___flmul@grs+3,f
  4405  051B  0BD0               	decfsz	??___flmul,f
  4406  051C  2D16               	goto	u3095
  4407  051D  0848               	movf	___flmul@b,w
  4408  051E  00D0               	movwf	??___flmul
  4409  051F  0850               	movf	??___flmul,w
  4410  0520  00A0               	movwf	__Umul8_16@multiplicand
  4411  0521  084C               	movf	___flmul@a,w
  4412  0522  120A  118A  27D5  120A  118A  	fcall	__Umul8_16
  4413  0527  1283               	bcf	3,5	;RP0=0, select bank0
  4414  0528  1303               	bcf	3,6	;RP1=0, select bank0
  4415  0529  0821               	movf	?__Umul8_16+1,w
  4416  052A  00E1               	movwf	___flmul@temp+1
  4417  052B  0820               	movf	?__Umul8_16,w
  4418  052C  00E0               	movwf	___flmul@temp
  4419  052D                     l2663:
  4420  052D  0860               	movf	___flmul@temp,w
  4421  052E  00D0               	movwf	??___flmul
  4422  052F  0861               	movf	___flmul@temp+1,w
  4423  0530  00D1               	movwf	??___flmul+1
  4424  0531  01D2               	clrf	??___flmul+2
  4425  0532  01D3               	clrf	??___flmul+3
  4426  0533  0850               	movf	??___flmul,w
  4427  0534  07D6               	addwf	___flmul@grs,f
  4428  0535  0851               	movf	??___flmul+1,w
  4429  0536  1103               	clrz
  4430  0537  1803               	skipnc
  4431  0538  3E01               	addlw	1
  4432  0539  1903               	skipnz
  4433  053A  2D3C               	goto	u3101
  4434  053B  07D7               	addwf	___flmul@grs+1,f
  4435  053C                     u3101:
  4436  053C  0852               	movf	??___flmul+2,w
  4437  053D  1103               	clrz
  4438  053E  1803               	skipnc
  4439  053F  3E01               	addlw	1
  4440  0540  1903               	skipnz
  4441  0541  2D43               	goto	u3102
  4442  0542  07D8               	addwf	___flmul@grs+2,f
  4443  0543                     u3102:
  4444  0543  0853               	movf	??___flmul+3,w
  4445  0544  1103               	clrz
  4446  0545  1803               	skipnc
  4447  0546  3E01               	addlw	1
  4448  0547  1903               	skipnz
  4449  0548  2D4A               	goto	u3103
  4450  0549  07D9               	addwf	___flmul@grs+3,f
  4451  054A                     u3103:
  4452  054A                     l2665:
  4453  054A  0849               	movf	___flmul@b+1,w
  4454  054B  00D0               	movwf	??___flmul
  4455  054C  0850               	movf	??___flmul,w
  4456  054D  00A0               	movwf	__Umul8_16@multiplicand
  4457  054E  084E               	movf	___flmul@a+2,w
  4458  054F  120A  118A  27D5  120A  118A  	fcall	__Umul8_16
  4459  0554  1283               	bcf	3,5	;RP0=0, select bank0
  4460  0555  1303               	bcf	3,6	;RP1=0, select bank0
  4461  0556  0821               	movf	?__Umul8_16+1,w
  4462  0557  00E1               	movwf	___flmul@temp+1
  4463  0558  0820               	movf	?__Umul8_16,w
  4464  0559  00E0               	movwf	___flmul@temp
  4465  055A  0860               	movf	___flmul@temp,w
  4466  055B  00D0               	movwf	??___flmul
  4467  055C  0861               	movf	___flmul@temp+1,w
  4468  055D  00D1               	movwf	??___flmul+1
  4469  055E  01D2               	clrf	??___flmul+2
  4470  055F  01D3               	clrf	??___flmul+3
  4471  0560  0850               	movf	??___flmul,w
  4472  0561  07DC               	addwf	___flmul@prod,f
  4473  0562  0851               	movf	??___flmul+1,w
  4474  0563  1103               	clrz
  4475  0564  1803               	skipnc
  4476  0565  3E01               	addlw	1
  4477  0566  1903               	skipnz
  4478  0567  2D69               	goto	u3111
  4479  0568  07DD               	addwf	___flmul@prod+1,f
  4480  0569                     u3111:
  4481  0569  0852               	movf	??___flmul+2,w
  4482  056A  1103               	clrz
  4483  056B  1803               	skipnc
  4484  056C  3E01               	addlw	1
  4485  056D  1903               	skipnz
  4486  056E  2D70               	goto	u3112
  4487  056F  07DE               	addwf	___flmul@prod+2,f
  4488  0570                     u3112:
  4489  0570  0853               	movf	??___flmul+3,w
  4490  0571  1103               	clrz
  4491  0572  1803               	skipnc
  4492  0573  3E01               	addlw	1
  4493  0574  1903               	skipnz
  4494  0575  2D77               	goto	u3113
  4495  0576  07DF               	addwf	___flmul@prod+3,f
  4496  0577                     u3113:
  4497  0577                     l2667:
  4498  0577  084A               	movf	___flmul@b+2,w
  4499  0578  00D0               	movwf	??___flmul
  4500  0579  0850               	movf	??___flmul,w
  4501  057A  00A0               	movwf	__Umul8_16@multiplicand
  4502  057B  084D               	movf	___flmul@a+1,w
  4503  057C  120A  118A  27D5  120A  118A  	fcall	__Umul8_16
  4504  0581  1283               	bcf	3,5	;RP0=0, select bank0
  4505  0582  1303               	bcf	3,6	;RP1=0, select bank0
  4506  0583  0821               	movf	?__Umul8_16+1,w
  4507  0584  00E1               	movwf	___flmul@temp+1
  4508  0585  0820               	movf	?__Umul8_16,w
  4509  0586  00E0               	movwf	___flmul@temp
  4510  0587                     l2669:
  4511  0587  0860               	movf	___flmul@temp,w
  4512  0588  00D0               	movwf	??___flmul
  4513  0589  0861               	movf	___flmul@temp+1,w
  4514  058A  00D1               	movwf	??___flmul+1
  4515  058B  01D2               	clrf	??___flmul+2
  4516  058C  01D3               	clrf	??___flmul+3
  4517  058D  0850               	movf	??___flmul,w
  4518  058E  07DC               	addwf	___flmul@prod,f
  4519  058F  0851               	movf	??___flmul+1,w
  4520  0590  1103               	clrz
  4521  0591  1803               	skipnc
  4522  0592  3E01               	addlw	1
  4523  0593  1903               	skipnz
  4524  0594  2D96               	goto	u3121
  4525  0595  07DD               	addwf	___flmul@prod+1,f
  4526  0596                     u3121:
  4527  0596  0852               	movf	??___flmul+2,w
  4528  0597  1103               	clrz
  4529  0598  1803               	skipnc
  4530  0599  3E01               	addlw	1
  4531  059A  1903               	skipnz
  4532  059B  2D9D               	goto	u3122
  4533  059C  07DE               	addwf	___flmul@prod+2,f
  4534  059D                     u3122:
  4535  059D  0853               	movf	??___flmul+3,w
  4536  059E  1103               	clrz
  4537  059F  1803               	skipnc
  4538  05A0  3E01               	addlw	1
  4539  05A1  1903               	skipnz
  4540  05A2  2DA4               	goto	u3123
  4541  05A3  07DF               	addwf	___flmul@prod+3,f
  4542  05A4                     u3123:
  4543  05A4  084A               	movf	___flmul@b+2,w
  4544  05A5  00D0               	movwf	??___flmul
  4545  05A6  0850               	movf	??___flmul,w
  4546  05A7  00A0               	movwf	__Umul8_16@multiplicand
  4547  05A8  084E               	movf	___flmul@a+2,w
  4548  05A9  120A  118A  27D5  120A  118A  	fcall	__Umul8_16
  4549  05AE  1283               	bcf	3,5	;RP0=0, select bank0
  4550  05AF  1303               	bcf	3,6	;RP1=0, select bank0
  4551  05B0  0821               	movf	?__Umul8_16+1,w
  4552  05B1  00E1               	movwf	___flmul@temp+1
  4553  05B2  0820               	movf	?__Umul8_16,w
  4554  05B3  00E0               	movwf	___flmul@temp
  4555  05B4                     l2671:
  4556  05B4  0860               	movf	___flmul@temp,w
  4557  05B5  00D0               	movwf	??___flmul
  4558  05B6  0861               	movf	___flmul@temp+1,w
  4559  05B7  00D1               	movwf	??___flmul+1
  4560  05B8  01D2               	clrf	??___flmul+2
  4561  05B9  01D3               	clrf	??___flmul+3
  4562  05BA  3008               	movlw	8
  4563  05BB                     u3135:
  4564  05BB  1003               	clrc
  4565  05BC  0DD0               	rlf	??___flmul,f
  4566  05BD  0DD1               	rlf	??___flmul+1,f
  4567  05BE  0DD2               	rlf	??___flmul+2,f
  4568  05BF  0DD3               	rlf	??___flmul+3,f
  4569  05C0                     u3130:
  4570  05C0  3EFF               	addlw	-1
  4571  05C1  1D03               	skipz
  4572  05C2  2DBB               	goto	u3135
  4573  05C3  0850               	movf	??___flmul,w
  4574  05C4  07DC               	addwf	___flmul@prod,f
  4575  05C5  0851               	movf	??___flmul+1,w
  4576  05C6  1103               	clrz
  4577  05C7  1803               	skipnc
  4578  05C8  3E01               	addlw	1
  4579  05C9  1903               	skipnz
  4580  05CA  2DCC               	goto	u3141
  4581  05CB  07DD               	addwf	___flmul@prod+1,f
  4582  05CC                     u3141:
  4583  05CC  0852               	movf	??___flmul+2,w
  4584  05CD  1103               	clrz
  4585  05CE  1803               	skipnc
  4586  05CF  3E01               	addlw	1
  4587  05D0  1903               	skipnz
  4588  05D1  2DD3               	goto	u3142
  4589  05D2  07DE               	addwf	___flmul@prod+2,f
  4590  05D3                     u3142:
  4591  05D3  0853               	movf	??___flmul+3,w
  4592  05D4  1103               	clrz
  4593  05D5  1803               	skipnc
  4594  05D6  3E01               	addlw	1
  4595  05D7  1903               	skipnz
  4596  05D8  2DDA               	goto	u3143
  4597  05D9  07DF               	addwf	___flmul@prod+3,f
  4598  05DA                     u3143:
  4599  05DA                     l2673:
  4600  05DA  0856               	movf	___flmul@grs,w
  4601  05DB  00D0               	movwf	??___flmul
  4602  05DC  0857               	movf	___flmul@grs+1,w
  4603  05DD  00D1               	movwf	??___flmul+1
  4604  05DE  0858               	movf	___flmul@grs+2,w
  4605  05DF  00D2               	movwf	??___flmul+2
  4606  05E0  0859               	movf	___flmul@grs+3,w
  4607  05E1  00D3               	movwf	??___flmul+3
  4608  05E2  3018               	movlw	24
  4609  05E3                     u3155:
  4610  05E3  1003               	clrc
  4611  05E4  0CD3               	rrf	??___flmul+3,f
  4612  05E5  0CD2               	rrf	??___flmul+2,f
  4613  05E6  0CD1               	rrf	??___flmul+1,f
  4614  05E7  0CD0               	rrf	??___flmul,f
  4615  05E8                     u3150:
  4616  05E8  3EFF               	addlw	-1
  4617  05E9  1D03               	skipz
  4618  05EA  2DE3               	goto	u3155
  4619  05EB  0850               	movf	??___flmul,w
  4620  05EC  07DC               	addwf	___flmul@prod,f
  4621  05ED  0851               	movf	??___flmul+1,w
  4622  05EE  1103               	clrz
  4623  05EF  1803               	skipnc
  4624  05F0  3E01               	addlw	1
  4625  05F1  1903               	skipnz
  4626  05F2  2DF4               	goto	u3161
  4627  05F3  07DD               	addwf	___flmul@prod+1,f
  4628  05F4                     u3161:
  4629  05F4  0852               	movf	??___flmul+2,w
  4630  05F5  1103               	clrz
  4631  05F6  1803               	skipnc
  4632  05F7  3E01               	addlw	1
  4633  05F8  1903               	skipnz
  4634  05F9  2DFB               	goto	u3162
  4635  05FA  07DE               	addwf	___flmul@prod+2,f
  4636  05FB                     u3162:
  4637  05FB  0853               	movf	??___flmul+3,w
  4638  05FC  1103               	clrz
  4639  05FD  1803               	skipnc
  4640  05FE  3E01               	addlw	1
  4641  05FF  1903               	skipnz
  4642  0600  2E02               	goto	u3163
  4643  0601  07DF               	addwf	___flmul@prod+3,f
  4644  0602                     u3163:
  4645  0602                     l2675:
  4646  0602  3008               	movlw	8
  4647  0603  00D0               	movwf	??___flmul
  4648  0604                     u3175:
  4649  0604  1003               	clrc
  4650  0605  0DD6               	rlf	___flmul@grs,f
  4651  0606  0DD7               	rlf	___flmul@grs+1,f
  4652  0607  0DD8               	rlf	___flmul@grs+2,f
  4653  0608  0DD9               	rlf	___flmul@grs+3,f
  4654  0609  0BD0               	decfsz	??___flmul,f
  4655  060A  2E04               	goto	u3175
  4656  060B                     l2677:
  4657  060B  085B               	movf	___flmul@bexp,w
  4658  060C  075A               	addwf	___flmul@aexp,w
  4659  060D  00D0               	movwf	??___flmul
  4660  060E  01D1               	clrf	??___flmul+1
  4661  060F  0DD1               	rlf	??___flmul+1,f
  4662  0610  0850               	movf	??___flmul,w
  4663  0611  3E82               	addlw	130
  4664  0612  00E0               	movwf	___flmul@temp
  4665  0613  0851               	movf	??___flmul+1,w
  4666  0614  1803               	skipnc
  4667  0615  3E01               	addlw	1
  4668  0616  3EFF               	addlw	255
  4669  0617  00E1               	movwf	___flmul@temp+1
  4670  0618  2E36               	goto	l2689
  4671  0619                     l2679:
  4672  0619  3001               	movlw	1
  4673  061A  00D0               	movwf	??___flmul
  4674  061B                     u3185:
  4675  061B  1003               	clrc
  4676  061C  0DDC               	rlf	___flmul@prod,f
  4677  061D  0DDD               	rlf	___flmul@prod+1,f
  4678  061E  0DDE               	rlf	___flmul@prod+2,f
  4679  061F  0DDF               	rlf	___flmul@prod+3,f
  4680  0620  0BD0               	decfsz	??___flmul,f
  4681  0621  2E1B               	goto	u3185
  4682  0622                     l2681:
  4683  0622  1FD9               	btfss	___flmul@grs+3,7
  4684  0623  2E25               	goto	u3191
  4685  0624  2E26               	goto	u3190
  4686  0625                     u3191:
  4687  0625  2E27               	goto	l2685
  4688  0626                     u3190:
  4689  0626                     l2683:
  4690  0626  145C               	bsf	___flmul@prod,0
  4691  0627                     l2685:
  4692  0627  3001               	movlw	1
  4693  0628  00D0               	movwf	??___flmul
  4694  0629                     u3205:
  4695  0629  1003               	clrc
  4696  062A  0DD6               	rlf	___flmul@grs,f
  4697  062B  0DD7               	rlf	___flmul@grs+1,f
  4698  062C  0DD8               	rlf	___flmul@grs+2,f
  4699  062D  0DD9               	rlf	___flmul@grs+3,f
  4700  062E  0BD0               	decfsz	??___flmul,f
  4701  062F  2E29               	goto	u3205
  4702  0630                     l2687:
  4703  0630  30FF               	movlw	255
  4704  0631  07E0               	addwf	___flmul@temp,f
  4705  0632  1803               	skipnc
  4706  0633  0AE1               	incf	___flmul@temp+1,f
  4707  0634  30FF               	movlw	255
  4708  0635  07E1               	addwf	___flmul@temp+1,f
  4709  0636                     l2689:
  4710  0636  1FDE               	btfss	___flmul@prod+2,7
  4711  0637  2E39               	goto	u3211
  4712  0638  2E3A               	goto	u3210
  4713  0639                     u3211:
  4714  0639  2E19               	goto	l2679
  4715  063A                     u3210:
  4716  063A                     l2691:
  4717  063A  01DA               	clrf	___flmul@aexp
  4718  063B                     l2693:
  4719  063B  1FD9               	btfss	___flmul@grs+3,7
  4720  063C  2E3E               	goto	u3221
  4721  063D  2E3F               	goto	u3220
  4722  063E                     u3221:
  4723  063E  2E5B               	goto	l2701
  4724  063F                     u3220:
  4725  063F                     l2695:
  4726  063F  30FF               	movlw	255
  4727  0640  0556               	andwf	___flmul@grs,w
  4728  0641  00D0               	movwf	??___flmul
  4729  0642  30FF               	movlw	255
  4730  0643  0557               	andwf	___flmul@grs+1,w
  4731  0644  00D1               	movwf	??___flmul+1
  4732  0645  30FF               	movlw	255
  4733  0646  0558               	andwf	___flmul@grs+2,w
  4734  0647  00D2               	movwf	??___flmul+2
  4735  0648  307F               	movlw	127
  4736  0649  0559               	andwf	___flmul@grs+3,w
  4737  064A  00D3               	movwf	??___flmul+3
  4738  064B  0853               	movf	??___flmul+3,w
  4739  064C  0452               	iorwf	??___flmul+2,w
  4740  064D  0451               	iorwf	??___flmul+1,w
  4741  064E  0450               	iorwf	??___flmul,w
  4742  064F  1903               	skipnz
  4743  0650  2E52               	goto	u3231
  4744  0651  2E53               	goto	u3230
  4745  0652                     u3231:
  4746  0652  2E56               	goto	l770
  4747  0653                     u3230:
  4748  0653                     l2697:
  4749  0653  01DA               	clrf	___flmul@aexp
  4750  0654  0ADA               	incf	___flmul@aexp,f
  4751  0655  2E5B               	goto	l2701
  4752  0656                     l770:
  4753  0656  1C5C               	btfss	___flmul@prod,0
  4754  0657  2E59               	goto	u3241
  4755  0658  2E5A               	goto	u3240
  4756  0659                     u3241:
  4757  0659  2E5B               	goto	l2701
  4758  065A                     u3240:
  4759  065A  2E53               	goto	l2697
  4760  065B                     l2701:
  4761  065B  085A               	movf	___flmul@aexp,w
  4762  065C  1903               	btfsc	3,2
  4763  065D  2E5F               	goto	u3251
  4764  065E  2E60               	goto	u3250
  4765  065F                     u3251:
  4766  065F  2E91               	goto	l2711
  4767  0660                     u3250:
  4768  0660                     l2703:
  4769  0660  3001               	movlw	1
  4770  0661  07DC               	addwf	___flmul@prod,f
  4771  0662  3000               	movlw	0
  4772  0663  1803               	skipnc
  4773  0664  3001               	movlw	1
  4774  0665  07DD               	addwf	___flmul@prod+1,f
  4775  0666  3000               	movlw	0
  4776  0667  1803               	skipnc
  4777  0668  3001               	movlw	1
  4778  0669  07DE               	addwf	___flmul@prod+2,f
  4779  066A  3000               	movlw	0
  4780  066B  1803               	skipnc
  4781  066C  3001               	movlw	1
  4782  066D  07DF               	addwf	___flmul@prod+3,f
  4783  066E                     l2705:
  4784  066E  1C5F               	btfss	___flmul@prod+3,0
  4785  066F  2E71               	goto	u3261
  4786  0670  2E72               	goto	u3260
  4787  0671                     u3261:
  4788  0671  2E91               	goto	l2711
  4789  0672                     u3260:
  4790  0672                     l2707:
  4791  0672  085C               	movf	___flmul@prod,w
  4792  0673  00D0               	movwf	??___flmul
  4793  0674  085D               	movf	___flmul@prod+1,w
  4794  0675  00D1               	movwf	??___flmul+1
  4795  0676  085E               	movf	___flmul@prod+2,w
  4796  0677  00D2               	movwf	??___flmul+2
  4797  0678  085F               	movf	___flmul@prod+3,w
  4798  0679  00D3               	movwf	??___flmul+3
  4799  067A  3001               	movlw	1
  4800  067B  00D4               	movwf	??___flmul+4
  4801  067C                     u3275:
  4802  067C  0D53               	rlf	??___flmul+3,w
  4803  067D  0CD3               	rrf	??___flmul+3,f
  4804  067E  0CD2               	rrf	??___flmul+2,f
  4805  067F  0CD1               	rrf	??___flmul+1,f
  4806  0680  0CD0               	rrf	??___flmul,f
  4807  0681                     u3270:
  4808  0681  0BD4               	decfsz	??___flmul+4,f
  4809  0682  2E7C               	goto	u3275
  4810  0683  0853               	movf	??___flmul+3,w
  4811  0684  00DF               	movwf	___flmul@prod+3
  4812  0685  0852               	movf	??___flmul+2,w
  4813  0686  00DE               	movwf	___flmul@prod+2
  4814  0687  0851               	movf	??___flmul+1,w
  4815  0688  00DD               	movwf	___flmul@prod+1
  4816  0689  0850               	movf	??___flmul,w
  4817  068A  00DC               	movwf	___flmul@prod
  4818  068B                     l2709:
  4819  068B  3001               	movlw	1
  4820  068C  07E0               	addwf	___flmul@temp,f
  4821  068D  1803               	skipnc
  4822  068E  0AE1               	incf	___flmul@temp+1,f
  4823  068F  3000               	movlw	0
  4824  0690  07E1               	addwf	___flmul@temp+1,f
  4825  0691                     l2711:
  4826  0691  0861               	movf	___flmul@temp+1,w
  4827  0692  3A80               	xorlw	128
  4828  0693  00FF               	movwf	btemp+1
  4829  0694  3080               	movlw	128
  4830  0695  027F               	subwf	btemp+1,w
  4831  0696  1D03               	skipz
  4832  0697  2E9A               	goto	u3285
  4833  0698  30FF               	movlw	255
  4834  0699  0260               	subwf	___flmul@temp,w
  4835  069A                     u3285:
  4836  069A  1C03               	skipc
  4837  069B  2E9D               	goto	u3281
  4838  069C  2E9E               	goto	u3280
  4839  069D                     u3281:
  4840  069D  2EA9               	goto	l2715
  4841  069E                     u3280:
  4842  069E                     l2713:
  4843  069E  307F               	movlw	127
  4844  069F  1283               	bcf	3,5	;RP0=0, select bank0
  4845  06A0  1303               	bcf	3,6	;RP1=0, select bank0
  4846  06A1  00DF               	movwf	___flmul@prod+3
  4847  06A2  3080               	movlw	128
  4848  06A3  00DE               	movwf	___flmul@prod+2
  4849  06A4  3000               	movlw	0
  4850  06A5  00DD               	movwf	___flmul@prod+1
  4851  06A6  3000               	movlw	0
  4852  06A7  00DC               	movwf	___flmul@prod
  4853  06A8  2EDE               	goto	l776
  4854  06A9                     l2715:
  4855  06A9  1283               	bcf	3,5	;RP0=0, select bank0
  4856  06AA  1303               	bcf	3,6	;RP1=0, select bank0
  4857  06AB  0861               	movf	___flmul@temp+1,w
  4858  06AC  3A80               	xorlw	128
  4859  06AD  00FF               	movwf	btemp+1
  4860  06AE  3080               	movlw	128
  4861  06AF  027F               	subwf	btemp+1,w
  4862  06B0  1D03               	skipz
  4863  06B1  2EB4               	goto	u3295
  4864  06B2  3001               	movlw	1
  4865  06B3  0260               	subwf	___flmul@temp,w
  4866  06B4                     u3295:
  4867  06B4  1803               	skipnc
  4868  06B5  2EB7               	goto	u3291
  4869  06B6  2EB8               	goto	u3290
  4870  06B7                     u3291:
  4871  06B7  2EC4               	goto	l2721
  4872  06B8                     u3290:
  4873  06B8                     l2717:
  4874  06B8  3000               	movlw	0
  4875  06B9  1283               	bcf	3,5	;RP0=0, select bank0
  4876  06BA  1303               	bcf	3,6	;RP1=0, select bank0
  4877  06BB  00DF               	movwf	___flmul@prod+3
  4878  06BC  3000               	movlw	0
  4879  06BD  00DE               	movwf	___flmul@prod+2
  4880  06BE  3000               	movlw	0
  4881  06BF  00DD               	movwf	___flmul@prod+1
  4882  06C0  3000               	movlw	0
  4883  06C1  00DC               	movwf	___flmul@prod
  4884  06C2                     l2719:
  4885  06C2  01D5               	clrf	___flmul@sign
  4886  06C3  2EDE               	goto	l776
  4887  06C4                     l2721:
  4888  06C4  1283               	bcf	3,5	;RP0=0, select bank0
  4889  06C5  1303               	bcf	3,6	;RP1=0, select bank0
  4890  06C6  0860               	movf	___flmul@temp,w
  4891  06C7  00D0               	movwf	??___flmul
  4892  06C8  0850               	movf	??___flmul,w
  4893  06C9  00DB               	movwf	___flmul@bexp
  4894  06CA  30FF               	movlw	255
  4895  06CB  05DC               	andwf	___flmul@prod,f
  4896  06CC  30FF               	movlw	255
  4897  06CD  05DD               	andwf	___flmul@prod+1,f
  4898  06CE  307F               	movlw	127
  4899  06CF  05DE               	andwf	___flmul@prod+2,f
  4900  06D0  3000               	movlw	0
  4901  06D1  05DF               	andwf	___flmul@prod+3,f
  4902  06D2                     l2723:
  4903  06D2  1C5B               	btfss	___flmul@bexp,0
  4904  06D3  2ED5               	goto	u3301
  4905  06D4  2ED6               	goto	u3300
  4906  06D5                     u3301:
  4907  06D5  2ED7               	goto	l2727
  4908  06D6                     u3300:
  4909  06D6                     l2725:
  4910  06D6  17DE               	bsf	___flmul@prod+2,7
  4911  06D7                     l2727:
  4912  06D7  085B               	movf	___flmul@bexp,w
  4913  06D8  00D0               	movwf	??___flmul
  4914  06D9  1003               	clrc
  4915  06DA  0C50               	rrf	??___flmul,w
  4916  06DB  00D1               	movwf	??___flmul+1
  4917  06DC  0851               	movf	??___flmul+1,w
  4918  06DD  00DF               	movwf	___flmul@prod+3
  4919  06DE                     l776:
  4920  06DE  0855               	movf	___flmul@sign,w
  4921  06DF  00D0               	movwf	??___flmul
  4922  06E0  0850               	movf	??___flmul,w
  4923  06E1  04DF               	iorwf	___flmul@prod+3,f
  4924  06E2                     l2729:
  4925  06E2  085F               	movf	___flmul@prod+3,w
  4926  06E3  00CB               	movwf	?___flmul+3
  4927  06E4  085E               	movf	___flmul@prod+2,w
  4928  06E5  00CA               	movwf	?___flmul+2
  4929  06E6  085D               	movf	___flmul@prod+1,w
  4930  06E7  00C9               	movwf	?___flmul+1
  4931  06E8  085C               	movf	___flmul@prod,w
  4932  06E9  00C8               	movwf	?___flmul
  4933  06EA                     l764:
  4934  06EA  0008               	return
  4935  06EB                     __end_of___flmul:
  4936                           
  4937                           	psect	text13
  4938  07D5                     __ptext13:	
  4939 ;; *************** function __Umul8_16 *****************
  4940 ;; Defined at:
  4941 ;;		line 4 in file "C:\Program Files\Microchip\xc8\v2.35\pic\sources\c90\common\Umul8_16.c"
  4942 ;; Parameters:    Size  Location     Type
  4943 ;;  multiplier      1    wreg     unsigned char 
  4944 ;;  multiplicand    1    0[BANK0 ] unsigned char 
  4945 ;; Auto vars:     Size  Location     Type
  4946 ;;  multiplier      1    8[BANK0 ] unsigned char 
  4947 ;;  word_mpld       2    6[BANK0 ] unsigned int 
  4948 ;;  product         2    4[BANK0 ] unsigned int 
  4949 ;; Return value:  Size  Location     Type
  4950 ;;                  2    0[BANK0 ] unsigned int 
  4951 ;; Registers used:
  4952 ;;		wreg, status,2, status,0
  4953 ;; Tracked objects:
  4954 ;;		On entry : 0/0
  4955 ;;		On exit  : 0/0
  4956 ;;		Unchanged: 0/0
  4957 ;; Data sizes:     COMMON   BANK0   BANK1   BANK3   BANK2
  4958 ;;      Params:         0       2       0       0       0
  4959 ;;      Locals:         0       5       0       0       0
  4960 ;;      Temps:          0       2       0       0       0
  4961 ;;      Totals:         0       9       0       0       0
  4962 ;;Total ram usage:        9 bytes
  4963 ;; Hardware stack levels used: 1
  4964 ;; Hardware stack levels required when called: 2
  4965 ;; This function calls:
  4966 ;;		Nothing
  4967 ;; This function is called by:
  4968 ;;		___flmul
  4969 ;; This function uses a non-reentrant model
  4970 ;;
  4971                           
  4972  07D5                     __Umul8_16:	
  4973                           ;psect for function __Umul8_16
  4974                           
  4975                           
  4976                           ;incstack = 0
  4977                           ; Regs used in __Umul8_16: [wreg+status,2+status,0]
  4978                           ;__Umul8_16@multiplier stored from wreg
  4979  07D5  1283               	bcf	3,5	;RP0=0, select bank0
  4980  07D6  1303               	bcf	3,6	;RP1=0, select bank0
  4981  07D7  00A8               	movwf	__Umul8_16@multiplier
  4982  07D8                     l2039:
  4983  07D8  01A4               	clrf	__Umul8_16@product
  4984  07D9  01A5               	clrf	__Umul8_16@product+1
  4985  07DA                     l2041:
  4986  07DA  0820               	movf	__Umul8_16@multiplicand,w
  4987  07DB  00A2               	movwf	??__Umul8_16
  4988  07DC  01A3               	clrf	??__Umul8_16+1
  4989  07DD  0822               	movf	??__Umul8_16,w
  4990  07DE  00A6               	movwf	__Umul8_16@word_mpld
  4991  07DF  0823               	movf	??__Umul8_16+1,w
  4992  07E0  00A7               	movwf	__Umul8_16@word_mpld+1
  4993  07E1                     l2043:
  4994  07E1  1C28               	btfss	__Umul8_16@multiplier,0
  4995  07E2  2FE4               	goto	u1921
  4996  07E3  2FE5               	goto	u1920
  4997  07E4                     u1921:
  4998  07E4  2FEB               	goto	l783
  4999  07E5                     u1920:
  5000  07E5                     l2045:
  5001  07E5  0826               	movf	__Umul8_16@word_mpld,w
  5002  07E6  07A4               	addwf	__Umul8_16@product,f
  5003  07E7  1803               	skipnc
  5004  07E8  0AA5               	incf	__Umul8_16@product+1,f
  5005  07E9  0827               	movf	__Umul8_16@word_mpld+1,w
  5006  07EA  07A5               	addwf	__Umul8_16@product+1,f
  5007  07EB                     l783:
  5008  07EB  3001               	movlw	1
  5009  07EC                     u1935:
  5010  07EC  1003               	clrc
  5011  07ED  0DA6               	rlf	__Umul8_16@word_mpld,f
  5012  07EE  0DA7               	rlf	__Umul8_16@word_mpld+1,f
  5013  07EF  3EFF               	addlw	-1
  5014  07F0  1D03               	skipz
  5015  07F1  2FEC               	goto	u1935
  5016  07F2  1003               	clrc
  5017  07F3  0CA8               	rrf	__Umul8_16@multiplier,f
  5018  07F4                     l2047:
  5019  07F4  0828               	movf	__Umul8_16@multiplier,w
  5020  07F5  1D03               	btfss	3,2
  5021  07F6  2FF8               	goto	u1941
  5022  07F7  2FF9               	goto	u1940
  5023  07F8                     u1941:
  5024  07F8  2FE1               	goto	l2043
  5025  07F9                     u1940:
  5026  07F9                     l2049:
  5027  07F9  0825               	movf	__Umul8_16@product+1,w
  5028  07FA  00A1               	movwf	?__Umul8_16+1
  5029  07FB  0824               	movf	__Umul8_16@product,w
  5030  07FC  00A0               	movwf	?__Umul8_16
  5031  07FD                     l785:
  5032  07FD  0008               	return
  5033  07FE                     __end_of__Umul8_16:
  5034                           
  5035                           	psect	text14
  5036  0E23                     __ptext14:	
  5037 ;; *************** function ___fldiv *****************
  5038 ;; Defined at:
  5039 ;;		line 8 in file "C:\Program Files\Microchip\xc8\v2.35\pic\sources\c90\common\sprcdiv.c"
  5040 ;; Parameters:    Size  Location     Type
  5041 ;;  a               4   14[BANK0 ] unsigned int 
  5042 ;;  b               4   18[BANK0 ] unsigned int 
  5043 ;; Auto vars:     Size  Location     Type
  5044 ;;  grs             4   34[BANK0 ] unsigned long 
  5045 ;;  rem             4   27[BANK0 ] unsigned long 
  5046 ;;  new_exp         2   32[BANK0 ] int 
  5047 ;;  aexp            1   39[BANK0 ] unsigned char 
  5048 ;;  bexp            1   38[BANK0 ] unsigned char 
  5049 ;;  sign            1   31[BANK0 ] unsigned char 
  5050 ;; Return value:  Size  Location     Type
  5051 ;;                  4   14[BANK0 ] unsigned char 
  5052 ;; Registers used:
  5053 ;;		wreg, status,2, status,0, btemp+1
  5054 ;; Tracked objects:
  5055 ;;		On entry : 0/0
  5056 ;;		On exit  : 0/0
  5057 ;;		Unchanged: 0/0
  5058 ;; Data sizes:     COMMON   BANK0   BANK1   BANK3   BANK2
  5059 ;;      Params:         0       8       0       0       0
  5060 ;;      Locals:         0      13       0       0       0
  5061 ;;      Temps:          0       5       0       0       0
  5062 ;;      Totals:         0      26       0       0       0
  5063 ;;Total ram usage:       26 bytes
  5064 ;; Hardware stack levels used: 1
  5065 ;; Hardware stack levels required when called: 2
  5066 ;; This function calls:
  5067 ;;		Nothing
  5068 ;; This function is called by:
  5069 ;;		_map
  5070 ;; This function uses a non-reentrant model
  5071 ;;
  5072                           
  5073  0E23                     ___fldiv:	
  5074                           ;psect for function ___fldiv
  5075                           
  5076  0E23                     l2451:	
  5077                           ;incstack = 0
  5078                           ; Regs used in ___fldiv: [wreg+status,2+status,0+btemp+1]
  5079                           
  5080  0E23  1283               	bcf	3,5	;RP0=0, select bank0
  5081  0E24  1303               	bcf	3,6	;RP1=0, select bank0
  5082  0E25  0835               	movf	___fldiv@b+3,w
  5083  0E26  3980               	andlw	128
  5084  0E27  00B6               	movwf	??___fldiv
  5085  0E28  0836               	movf	??___fldiv,w
  5086  0E29  00BF               	movwf	___fldiv@sign
  5087  0E2A                     l2453:
  5088  0E2A  0835               	movf	___fldiv@b+3,w
  5089  0E2B  00B6               	movwf	??___fldiv
  5090  0E2C  0736               	addwf	??___fldiv,w
  5091  0E2D  00B7               	movwf	??___fldiv+1
  5092  0E2E  0837               	movf	??___fldiv+1,w
  5093  0E2F  00C6               	movwf	___fldiv@bexp
  5094  0E30                     l2455:
  5095  0E30  1FB4               	btfss	___fldiv@b+2,7
  5096  0E31  2E33               	goto	u2651
  5097  0E32  2E34               	goto	u2650
  5098  0E33                     u2651:
  5099  0E33  2E35               	goto	l2459
  5100  0E34                     u2650:
  5101  0E34                     l2457:
  5102  0E34  1446               	bsf	___fldiv@bexp,0
  5103  0E35                     l2459:
  5104  0E35  0846               	movf	___fldiv@bexp,w
  5105  0E36  1903               	btfsc	3,2
  5106  0E37  2E39               	goto	u2661
  5107  0E38  2E3A               	goto	u2660
  5108  0E39                     u2661:
  5109  0E39  2E4A               	goto	l2469
  5110  0E3A                     u2660:
  5111  0E3A                     l2461:
  5112  0E3A  0A46               	incf	___fldiv@bexp,w
  5113  0E3B  1D03               	btfss	3,2
  5114  0E3C  2E3E               	goto	u2671
  5115  0E3D  2E3F               	goto	u2670
  5116  0E3E                     u2671:
  5117  0E3E  2E47               	goto	l2465
  5118  0E3F                     u2670:
  5119  0E3F                     l2463:
  5120  0E3F  3000               	movlw	0
  5121  0E40  00B5               	movwf	___fldiv@b+3
  5122  0E41  3000               	movlw	0
  5123  0E42  00B4               	movwf	___fldiv@b+2
  5124  0E43  3000               	movlw	0
  5125  0E44  00B3               	movwf	___fldiv@b+1
  5126  0E45  3000               	movlw	0
  5127  0E46  00B2               	movwf	___fldiv@b
  5128  0E47                     l2465:
  5129  0E47  17B4               	bsf	___fldiv@b+2,7
  5130  0E48                     l2467:
  5131  0E48  01B5               	clrf	___fldiv@b+3
  5132  0E49  2E52               	goto	l2471
  5133  0E4A                     l2469:
  5134  0E4A  3000               	movlw	0
  5135  0E4B  00B5               	movwf	___fldiv@b+3
  5136  0E4C  3000               	movlw	0
  5137  0E4D  00B4               	movwf	___fldiv@b+2
  5138  0E4E  3000               	movlw	0
  5139  0E4F  00B3               	movwf	___fldiv@b+1
  5140  0E50  3000               	movlw	0
  5141  0E51  00B2               	movwf	___fldiv@b
  5142  0E52                     l2471:
  5143  0E52  0831               	movf	___fldiv@a+3,w
  5144  0E53  3980               	andlw	128
  5145  0E54  00B6               	movwf	??___fldiv
  5146  0E55  0836               	movf	??___fldiv,w
  5147  0E56  06BF               	xorwf	___fldiv@sign,f
  5148  0E57                     l2473:
  5149  0E57  0831               	movf	___fldiv@a+3,w
  5150  0E58  00B6               	movwf	??___fldiv
  5151  0E59  0736               	addwf	??___fldiv,w
  5152  0E5A  00B7               	movwf	??___fldiv+1
  5153  0E5B  0837               	movf	??___fldiv+1,w
  5154  0E5C  00C7               	movwf	___fldiv@aexp
  5155  0E5D                     l2475:
  5156  0E5D  1FB0               	btfss	___fldiv@a+2,7
  5157  0E5E  2E60               	goto	u2681
  5158  0E5F  2E61               	goto	u2680
  5159  0E60                     u2681:
  5160  0E60  2E62               	goto	l2479
  5161  0E61                     u2680:
  5162  0E61                     l2477:
  5163  0E61  1447               	bsf	___fldiv@aexp,0
  5164  0E62                     l2479:
  5165  0E62  0847               	movf	___fldiv@aexp,w
  5166  0E63  1903               	btfsc	3,2
  5167  0E64  2E66               	goto	u2691
  5168  0E65  2E67               	goto	u2690
  5169  0E66                     u2691:
  5170  0E66  2E77               	goto	l2489
  5171  0E67                     u2690:
  5172  0E67                     l2481:
  5173  0E67  0A47               	incf	___fldiv@aexp,w
  5174  0E68  1D03               	btfss	3,2
  5175  0E69  2E6B               	goto	u2701
  5176  0E6A  2E6C               	goto	u2700
  5177  0E6B                     u2701:
  5178  0E6B  2E74               	goto	l2485
  5179  0E6C                     u2700:
  5180  0E6C                     l2483:
  5181  0E6C  3000               	movlw	0
  5182  0E6D  00B1               	movwf	___fldiv@a+3
  5183  0E6E  3000               	movlw	0
  5184  0E6F  00B0               	movwf	___fldiv@a+2
  5185  0E70  3000               	movlw	0
  5186  0E71  00AF               	movwf	___fldiv@a+1
  5187  0E72  3000               	movlw	0
  5188  0E73  00AE               	movwf	___fldiv@a
  5189  0E74                     l2485:
  5190  0E74  17B0               	bsf	___fldiv@a+2,7
  5191  0E75                     l2487:
  5192  0E75  01B1               	clrf	___fldiv@a+3
  5193  0E76  2E7F               	goto	l724
  5194  0E77                     l2489:
  5195  0E77  3000               	movlw	0
  5196  0E78  00B1               	movwf	___fldiv@a+3
  5197  0E79  3000               	movlw	0
  5198  0E7A  00B0               	movwf	___fldiv@a+2
  5199  0E7B  3000               	movlw	0
  5200  0E7C  00AF               	movwf	___fldiv@a+1
  5201  0E7D  3000               	movlw	0
  5202  0E7E  00AE               	movwf	___fldiv@a
  5203  0E7F                     l724:
  5204  0E7F  0831               	movf	___fldiv@a+3,w
  5205  0E80  0430               	iorwf	___fldiv@a+2,w
  5206  0E81  042F               	iorwf	___fldiv@a+1,w
  5207  0E82  042E               	iorwf	___fldiv@a,w
  5208  0E83  1D03               	skipz
  5209  0E84  2E86               	goto	u2711
  5210  0E85  2E87               	goto	u2710
  5211  0E86                     u2711:
  5212  0E86  2EA0               	goto	l2499
  5213  0E87                     u2710:
  5214  0E87                     l2491:
  5215  0E87  3000               	movlw	0
  5216  0E88  00B5               	movwf	___fldiv@b+3
  5217  0E89  3000               	movlw	0
  5218  0E8A  00B4               	movwf	___fldiv@b+2
  5219  0E8B  3000               	movlw	0
  5220  0E8C  00B3               	movwf	___fldiv@b+1
  5221  0E8D  3000               	movlw	0
  5222  0E8E  00B2               	movwf	___fldiv@b
  5223  0E8F  3080               	movlw	128
  5224  0E90  04B4               	iorwf	___fldiv@b+2,f
  5225  0E91  307F               	movlw	127
  5226  0E92  04B5               	iorwf	___fldiv@b+3,f
  5227  0E93                     l2493:
  5228  0E93  083F               	movf	___fldiv@sign,w
  5229  0E94  00B6               	movwf	??___fldiv
  5230  0E95  0836               	movf	??___fldiv,w
  5231  0E96  04B5               	iorwf	___fldiv@b+3,f
  5232  0E97                     l2495:
  5233  0E97  0835               	movf	___fldiv@b+3,w
  5234  0E98  00B1               	movwf	?___fldiv+3
  5235  0E99  0834               	movf	___fldiv@b+2,w
  5236  0E9A  00B0               	movwf	?___fldiv+2
  5237  0E9B  0833               	movf	___fldiv@b+1,w
  5238  0E9C  00AF               	movwf	?___fldiv+1
  5239  0E9D  0832               	movf	___fldiv@b,w
  5240  0E9E  00AE               	movwf	?___fldiv
  5241  0E9F  2FFF               	goto	l726
  5242  0EA0                     l2499:
  5243  0EA0  0846               	movf	___fldiv@bexp,w
  5244  0EA1  1D03               	btfss	3,2
  5245  0EA2  2EA4               	goto	u2721
  5246  0EA3  2EA5               	goto	u2720
  5247  0EA4                     u2721:
  5248  0EA4  2EAE               	goto	l2505
  5249  0EA5                     u2720:
  5250  0EA5                     l2501:
  5251  0EA5  3000               	movlw	0
  5252  0EA6  00B1               	movwf	?___fldiv+3
  5253  0EA7  3000               	movlw	0
  5254  0EA8  00B0               	movwf	?___fldiv+2
  5255  0EA9  3000               	movlw	0
  5256  0EAA  00AF               	movwf	?___fldiv+1
  5257  0EAB  3000               	movlw	0
  5258  0EAC  00AE               	movwf	?___fldiv
  5259  0EAD  2FFF               	goto	l726
  5260  0EAE                     l2505:
  5261  0EAE  0846               	movf	___fldiv@bexp,w
  5262  0EAF  00B6               	movwf	??___fldiv
  5263  0EB0  01B7               	clrf	??___fldiv+1
  5264  0EB1  0837               	movf	??___fldiv+1,w
  5265  0EB2  00B9               	movwf	??___fldiv+3
  5266  0EB3  0847               	movf	___fldiv@aexp,w
  5267  0EB4  0236               	subwf	??___fldiv,w
  5268  0EB5  00B8               	movwf	??___fldiv+2
  5269  0EB6  1C03               	skipc
  5270  0EB7  03B9               	decf	??___fldiv+3,f
  5271  0EB8  0838               	movf	??___fldiv+2,w
  5272  0EB9  3E7F               	addlw	127
  5273  0EBA  00C0               	movwf	___fldiv@new_exp
  5274  0EBB  0839               	movf	??___fldiv+3,w
  5275  0EBC  1803               	skipnc
  5276  0EBD  3E01               	addlw	1
  5277  0EBE  3E00               	addlw	0
  5278  0EBF  00C1               	movwf	___fldiv@new_exp+1
  5279  0EC0                     l2507:
  5280  0EC0  0835               	movf	___fldiv@b+3,w
  5281  0EC1  00BE               	movwf	___fldiv@rem+3
  5282  0EC2  0834               	movf	___fldiv@b+2,w
  5283  0EC3  00BD               	movwf	___fldiv@rem+2
  5284  0EC4  0833               	movf	___fldiv@b+1,w
  5285  0EC5  00BC               	movwf	___fldiv@rem+1
  5286  0EC6  0832               	movf	___fldiv@b,w
  5287  0EC7  00BB               	movwf	___fldiv@rem
  5288  0EC8                     l2509:
  5289  0EC8  3000               	movlw	0
  5290  0EC9  00B5               	movwf	___fldiv@b+3
  5291  0ECA  3000               	movlw	0
  5292  0ECB  00B4               	movwf	___fldiv@b+2
  5293  0ECC  3000               	movlw	0
  5294  0ECD  00B3               	movwf	___fldiv@b+1
  5295  0ECE  3000               	movlw	0
  5296  0ECF  00B2               	movwf	___fldiv@b
  5297  0ED0                     l2511:
  5298  0ED0  3000               	movlw	0
  5299  0ED1  00C5               	movwf	___fldiv@grs+3
  5300  0ED2  3000               	movlw	0
  5301  0ED3  00C4               	movwf	___fldiv@grs+2
  5302  0ED4  3000               	movlw	0
  5303  0ED5  00C3               	movwf	___fldiv@grs+1
  5304  0ED6  3000               	movlw	0
  5305  0ED7  00C2               	movwf	___fldiv@grs
  5306  0ED8                     l2513:
  5307  0ED8  01C7               	clrf	___fldiv@aexp
  5308  0ED9  2F24               	goto	l2533
  5309  0EDA                     l2515:
  5310  0EDA  0847               	movf	___fldiv@aexp,w
  5311  0EDB  1903               	btfsc	3,2
  5312  0EDC  2EDE               	goto	u2731
  5313  0EDD  2EDF               	goto	u2730
  5314  0EDE                     u2731:
  5315  0EDE  2EFF               	goto	l2525
  5316  0EDF                     u2730:
  5317  0EDF                     l2517:
  5318  0EDF  3001               	movlw	1
  5319  0EE0  00B6               	movwf	??___fldiv
  5320  0EE1                     u2745:
  5321  0EE1  1003               	clrc
  5322  0EE2  0DBB               	rlf	___fldiv@rem,f
  5323  0EE3  0DBC               	rlf	___fldiv@rem+1,f
  5324  0EE4  0DBD               	rlf	___fldiv@rem+2,f
  5325  0EE5  0DBE               	rlf	___fldiv@rem+3,f
  5326  0EE6  0BB6               	decfsz	??___fldiv,f
  5327  0EE7  2EE1               	goto	u2745
  5328  0EE8  3001               	movlw	1
  5329  0EE9  00B6               	movwf	??___fldiv
  5330  0EEA                     u2755:
  5331  0EEA  1003               	clrc
  5332  0EEB  0DB2               	rlf	___fldiv@b,f
  5333  0EEC  0DB3               	rlf	___fldiv@b+1,f
  5334  0EED  0DB4               	rlf	___fldiv@b+2,f
  5335  0EEE  0DB5               	rlf	___fldiv@b+3,f
  5336  0EEF  0BB6               	decfsz	??___fldiv,f
  5337  0EF0  2EEA               	goto	u2755
  5338  0EF1                     l2519:
  5339  0EF1  1FC5               	btfss	___fldiv@grs+3,7
  5340  0EF2  2EF4               	goto	u2761
  5341  0EF3  2EF5               	goto	u2760
  5342  0EF4                     u2761:
  5343  0EF4  2EF6               	goto	l2523
  5344  0EF5                     u2760:
  5345  0EF5                     l2521:
  5346  0EF5  1432               	bsf	___fldiv@b,0
  5347  0EF6                     l2523:
  5348  0EF6  3001               	movlw	1
  5349  0EF7  00B6               	movwf	??___fldiv
  5350  0EF8                     u2775:
  5351  0EF8  1003               	clrc
  5352  0EF9  0DC2               	rlf	___fldiv@grs,f
  5353  0EFA  0DC3               	rlf	___fldiv@grs+1,f
  5354  0EFB  0DC4               	rlf	___fldiv@grs+2,f
  5355  0EFC  0DC5               	rlf	___fldiv@grs+3,f
  5356  0EFD  0BB6               	decfsz	??___fldiv,f
  5357  0EFE  2EF8               	goto	u2775
  5358  0EFF                     l2525:
  5359  0EFF  0831               	movf	___fldiv@a+3,w
  5360  0F00  023E               	subwf	___fldiv@rem+3,w
  5361  0F01  1D03               	skipz
  5362  0F02  2F0D               	goto	u2785
  5363  0F03  0830               	movf	___fldiv@a+2,w
  5364  0F04  023D               	subwf	___fldiv@rem+2,w
  5365  0F05  1D03               	skipz
  5366  0F06  2F0D               	goto	u2785
  5367  0F07  082F               	movf	___fldiv@a+1,w
  5368  0F08  023C               	subwf	___fldiv@rem+1,w
  5369  0F09  1D03               	skipz
  5370  0F0A  2F0D               	goto	u2785
  5371  0F0B  082E               	movf	___fldiv@a,w
  5372  0F0C  023B               	subwf	___fldiv@rem,w
  5373  0F0D                     u2785:
  5374  0F0D  1C03               	skipc
  5375  0F0E  2F10               	goto	u2781
  5376  0F0F  2F11               	goto	u2780
  5377  0F10                     u2781:
  5378  0F10  2F20               	goto	l2531
  5379  0F11                     u2780:
  5380  0F11                     l2527:
  5381  0F11  1745               	bsf	___fldiv@grs+3,6
  5382  0F12                     l2529:
  5383  0F12  082E               	movf	___fldiv@a,w
  5384  0F13  02BB               	subwf	___fldiv@rem,f
  5385  0F14  082F               	movf	___fldiv@a+1,w
  5386  0F15  1C03               	skipc
  5387  0F16  0F2F               	incfsz	___fldiv@a+1,w
  5388  0F17  02BC               	subwf	___fldiv@rem+1,f
  5389  0F18  0830               	movf	___fldiv@a+2,w
  5390  0F19  1C03               	skipc
  5391  0F1A  0F30               	incfsz	___fldiv@a+2,w
  5392  0F1B  02BD               	subwf	___fldiv@rem+2,f
  5393  0F1C  0831               	movf	___fldiv@a+3,w
  5394  0F1D  1C03               	skipc
  5395  0F1E  0F31               	incfsz	___fldiv@a+3,w
  5396  0F1F  02BE               	subwf	___fldiv@rem+3,f
  5397  0F20                     l2531:
  5398  0F20  3001               	movlw	1
  5399  0F21  00B6               	movwf	??___fldiv
  5400  0F22  0836               	movf	??___fldiv,w
  5401  0F23  07C7               	addwf	___fldiv@aexp,f
  5402  0F24                     l2533:
  5403  0F24  301A               	movlw	26
  5404  0F25  0247               	subwf	___fldiv@aexp,w
  5405  0F26  1C03               	skipc
  5406  0F27  2F29               	goto	u2791
  5407  0F28  2F2A               	goto	u2790
  5408  0F29                     u2791:
  5409  0F29  2EDA               	goto	l2515
  5410  0F2A                     u2790:
  5411  0F2A                     l2535:
  5412  0F2A  083E               	movf	___fldiv@rem+3,w
  5413  0F2B  043D               	iorwf	___fldiv@rem+2,w
  5414  0F2C  043C               	iorwf	___fldiv@rem+1,w
  5415  0F2D  043B               	iorwf	___fldiv@rem,w
  5416  0F2E  1903               	skipnz
  5417  0F2F  2F31               	goto	u2801
  5418  0F30  2F32               	goto	u2800
  5419  0F31                     u2801:
  5420  0F31  2F51               	goto	l2549
  5421  0F32                     u2800:
  5422  0F32                     l2537:
  5423  0F32  1442               	bsf	___fldiv@grs,0
  5424  0F33  2F51               	goto	l2549
  5425  0F34                     l2539:
  5426  0F34  3001               	movlw	1
  5427  0F35  00B6               	movwf	??___fldiv
  5428  0F36                     u2815:
  5429  0F36  1003               	clrc
  5430  0F37  0DB2               	rlf	___fldiv@b,f
  5431  0F38  0DB3               	rlf	___fldiv@b+1,f
  5432  0F39  0DB4               	rlf	___fldiv@b+2,f
  5433  0F3A  0DB5               	rlf	___fldiv@b+3,f
  5434  0F3B  0BB6               	decfsz	??___fldiv,f
  5435  0F3C  2F36               	goto	u2815
  5436  0F3D                     l2541:
  5437  0F3D  1FC5               	btfss	___fldiv@grs+3,7
  5438  0F3E  2F40               	goto	u2821
  5439  0F3F  2F41               	goto	u2820
  5440  0F40                     u2821:
  5441  0F40  2F42               	goto	l2545
  5442  0F41                     u2820:
  5443  0F41                     l2543:
  5444  0F41  1432               	bsf	___fldiv@b,0
  5445  0F42                     l2545:
  5446  0F42  3001               	movlw	1
  5447  0F43  00B6               	movwf	??___fldiv
  5448  0F44                     u2835:
  5449  0F44  1003               	clrc
  5450  0F45  0DC2               	rlf	___fldiv@grs,f
  5451  0F46  0DC3               	rlf	___fldiv@grs+1,f
  5452  0F47  0DC4               	rlf	___fldiv@grs+2,f
  5453  0F48  0DC5               	rlf	___fldiv@grs+3,f
  5454  0F49  0BB6               	decfsz	??___fldiv,f
  5455  0F4A  2F44               	goto	u2835
  5456  0F4B                     l2547:
  5457  0F4B  30FF               	movlw	255
  5458  0F4C  07C0               	addwf	___fldiv@new_exp,f
  5459  0F4D  1803               	skipnc
  5460  0F4E  0AC1               	incf	___fldiv@new_exp+1,f
  5461  0F4F  30FF               	movlw	255
  5462  0F50  07C1               	addwf	___fldiv@new_exp+1,f
  5463  0F51                     l2549:
  5464  0F51  1FB4               	btfss	___fldiv@b+2,7
  5465  0F52  2F54               	goto	u2841
  5466  0F53  2F55               	goto	u2840
  5467  0F54                     u2841:
  5468  0F54  2F34               	goto	l2539
  5469  0F55                     u2840:
  5470  0F55                     l2551:
  5471  0F55  01C7               	clrf	___fldiv@aexp
  5472  0F56                     l2553:
  5473  0F56  1FC5               	btfss	___fldiv@grs+3,7
  5474  0F57  2F59               	goto	u2851
  5475  0F58  2F5A               	goto	u2850
  5476  0F59                     u2851:
  5477  0F59  2F76               	goto	l2561
  5478  0F5A                     u2850:
  5479  0F5A                     l2555:
  5480  0F5A  30FF               	movlw	255
  5481  0F5B  0542               	andwf	___fldiv@grs,w
  5482  0F5C  00B6               	movwf	??___fldiv
  5483  0F5D  30FF               	movlw	255
  5484  0F5E  0543               	andwf	___fldiv@grs+1,w
  5485  0F5F  00B7               	movwf	??___fldiv+1
  5486  0F60  30FF               	movlw	255
  5487  0F61  0544               	andwf	___fldiv@grs+2,w
  5488  0F62  00B8               	movwf	??___fldiv+2
  5489  0F63  307F               	movlw	127
  5490  0F64  0545               	andwf	___fldiv@grs+3,w
  5491  0F65  00B9               	movwf	??___fldiv+3
  5492  0F66  0839               	movf	??___fldiv+3,w
  5493  0F67  0438               	iorwf	??___fldiv+2,w
  5494  0F68  0437               	iorwf	??___fldiv+1,w
  5495  0F69  0436               	iorwf	??___fldiv,w
  5496  0F6A  1903               	skipnz
  5497  0F6B  2F6D               	goto	u2861
  5498  0F6C  2F6E               	goto	u2860
  5499  0F6D                     u2861:
  5500  0F6D  2F71               	goto	l740
  5501  0F6E                     u2860:
  5502  0F6E                     l2557:
  5503  0F6E  01C7               	clrf	___fldiv@aexp
  5504  0F6F  0AC7               	incf	___fldiv@aexp,f
  5505  0F70  2F76               	goto	l2561
  5506  0F71                     l740:
  5507  0F71  1C32               	btfss	___fldiv@b,0
  5508  0F72  2F74               	goto	u2871
  5509  0F73  2F75               	goto	u2870
  5510  0F74                     u2871:
  5511  0F74  2F76               	goto	l2561
  5512  0F75                     u2870:
  5513  0F75  2F6E               	goto	l2557
  5514  0F76                     l2561:
  5515  0F76  0847               	movf	___fldiv@aexp,w
  5516  0F77  1903               	btfsc	3,2
  5517  0F78  2F7A               	goto	u2881
  5518  0F79  2F7B               	goto	u2880
  5519  0F7A                     u2881:
  5520  0F7A  2FAC               	goto	l2571
  5521  0F7B                     u2880:
  5522  0F7B                     l2563:
  5523  0F7B  3001               	movlw	1
  5524  0F7C  07B2               	addwf	___fldiv@b,f
  5525  0F7D  3000               	movlw	0
  5526  0F7E  1803               	skipnc
  5527  0F7F  3001               	movlw	1
  5528  0F80  07B3               	addwf	___fldiv@b+1,f
  5529  0F81  3000               	movlw	0
  5530  0F82  1803               	skipnc
  5531  0F83  3001               	movlw	1
  5532  0F84  07B4               	addwf	___fldiv@b+2,f
  5533  0F85  3000               	movlw	0
  5534  0F86  1803               	skipnc
  5535  0F87  3001               	movlw	1
  5536  0F88  07B5               	addwf	___fldiv@b+3,f
  5537  0F89                     l2565:
  5538  0F89  1C35               	btfss	___fldiv@b+3,0
  5539  0F8A  2F8C               	goto	u2891
  5540  0F8B  2F8D               	goto	u2890
  5541  0F8C                     u2891:
  5542  0F8C  2FAC               	goto	l2571
  5543  0F8D                     u2890:
  5544  0F8D                     l2567:
  5545  0F8D  0832               	movf	___fldiv@b,w
  5546  0F8E  00B6               	movwf	??___fldiv
  5547  0F8F  0833               	movf	___fldiv@b+1,w
  5548  0F90  00B7               	movwf	??___fldiv+1
  5549  0F91  0834               	movf	___fldiv@b+2,w
  5550  0F92  00B8               	movwf	??___fldiv+2
  5551  0F93  0835               	movf	___fldiv@b+3,w
  5552  0F94  00B9               	movwf	??___fldiv+3
  5553  0F95  3001               	movlw	1
  5554  0F96  00BA               	movwf	??___fldiv+4
  5555  0F97                     u2905:
  5556  0F97  0D39               	rlf	??___fldiv+3,w
  5557  0F98  0CB9               	rrf	??___fldiv+3,f
  5558  0F99  0CB8               	rrf	??___fldiv+2,f
  5559  0F9A  0CB7               	rrf	??___fldiv+1,f
  5560  0F9B  0CB6               	rrf	??___fldiv,f
  5561  0F9C                     u2900:
  5562  0F9C  0BBA               	decfsz	??___fldiv+4,f
  5563  0F9D  2F97               	goto	u2905
  5564  0F9E  0839               	movf	??___fldiv+3,w
  5565  0F9F  00B5               	movwf	___fldiv@b+3
  5566  0FA0  0838               	movf	??___fldiv+2,w
  5567  0FA1  00B4               	movwf	___fldiv@b+2
  5568  0FA2  0837               	movf	??___fldiv+1,w
  5569  0FA3  00B3               	movwf	___fldiv@b+1
  5570  0FA4  0836               	movf	??___fldiv,w
  5571  0FA5  00B2               	movwf	___fldiv@b
  5572  0FA6                     l2569:
  5573  0FA6  3001               	movlw	1
  5574  0FA7  07C0               	addwf	___fldiv@new_exp,f
  5575  0FA8  1803               	skipnc
  5576  0FA9  0AC1               	incf	___fldiv@new_exp+1,f
  5577  0FAA  3000               	movlw	0
  5578  0FAB  07C1               	addwf	___fldiv@new_exp+1,f
  5579  0FAC                     l2571:
  5580  0FAC  0841               	movf	___fldiv@new_exp+1,w
  5581  0FAD  3A80               	xorlw	128
  5582  0FAE  00FF               	movwf	btemp+1
  5583  0FAF  3080               	movlw	128
  5584  0FB0  027F               	subwf	btemp+1,w
  5585  0FB1  1D03               	skipz
  5586  0FB2  2FB5               	goto	u2915
  5587  0FB3  30FF               	movlw	255
  5588  0FB4  0240               	subwf	___fldiv@new_exp,w
  5589  0FB5                     u2915:
  5590  0FB5  1C03               	skipc
  5591  0FB6  2FB8               	goto	u2911
  5592  0FB7  2FB9               	goto	u2910
  5593  0FB8                     u2911:
  5594  0FB8  2FC7               	goto	l2575
  5595  0FB9                     u2910:
  5596  0FB9                     l2573:
  5597  0FB9  30FF               	movlw	255
  5598  0FBA  1283               	bcf	3,5	;RP0=0, select bank0
  5599  0FBB  1303               	bcf	3,6	;RP1=0, select bank0
  5600  0FBC  00C0               	movwf	___fldiv@new_exp
  5601  0FBD  3000               	movlw	0
  5602  0FBE  00C1               	movwf	___fldiv@new_exp+1
  5603  0FBF  3000               	movlw	0
  5604  0FC0  00B5               	movwf	___fldiv@b+3
  5605  0FC1  3000               	movlw	0
  5606  0FC2  00B4               	movwf	___fldiv@b+2
  5607  0FC3  3000               	movlw	0
  5608  0FC4  00B3               	movwf	___fldiv@b+1
  5609  0FC5  3000               	movlw	0
  5610  0FC6  00B2               	movwf	___fldiv@b
  5611  0FC7                     l2575:
  5612  0FC7  1283               	bcf	3,5	;RP0=0, select bank0
  5613  0FC8  1303               	bcf	3,6	;RP1=0, select bank0
  5614  0FC9  0841               	movf	___fldiv@new_exp+1,w
  5615  0FCA  3A80               	xorlw	128
  5616  0FCB  00FF               	movwf	btemp+1
  5617  0FCC  3080               	movlw	128
  5618  0FCD  027F               	subwf	btemp+1,w
  5619  0FCE  1D03               	skipz
  5620  0FCF  2FD2               	goto	u2925
  5621  0FD0  3001               	movlw	1
  5622  0FD1  0240               	subwf	___fldiv@new_exp,w
  5623  0FD2                     u2925:
  5624  0FD2  1803               	skipnc
  5625  0FD3  2FD5               	goto	u2921
  5626  0FD4  2FD6               	goto	u2920
  5627  0FD5                     u2921:
  5628  0FD5  2FE3               	goto	l746
  5629  0FD6                     u2920:
  5630  0FD6                     l2577:
  5631  0FD6  1283               	bcf	3,5	;RP0=0, select bank0
  5632  0FD7  1303               	bcf	3,6	;RP1=0, select bank0
  5633  0FD8  01C0               	clrf	___fldiv@new_exp
  5634  0FD9  01C1               	clrf	___fldiv@new_exp+1
  5635  0FDA                     l2579:
  5636  0FDA  3000               	movlw	0
  5637  0FDB  00B5               	movwf	___fldiv@b+3
  5638  0FDC  3000               	movlw	0
  5639  0FDD  00B4               	movwf	___fldiv@b+2
  5640  0FDE  3000               	movlw	0
  5641  0FDF  00B3               	movwf	___fldiv@b+1
  5642  0FE0  3000               	movlw	0
  5643  0FE1  00B2               	movwf	___fldiv@b
  5644  0FE2                     l2581:
  5645  0FE2  01BF               	clrf	___fldiv@sign
  5646  0FE3                     l746:
  5647  0FE3  1283               	bcf	3,5	;RP0=0, select bank0
  5648  0FE4  1303               	bcf	3,6	;RP1=0, select bank0
  5649  0FE5  0840               	movf	___fldiv@new_exp,w
  5650  0FE6  00B6               	movwf	??___fldiv
  5651  0FE7  0836               	movf	??___fldiv,w
  5652  0FE8  00C6               	movwf	___fldiv@bexp
  5653  0FE9                     l2583:
  5654  0FE9  1C46               	btfss	___fldiv@bexp,0
  5655  0FEA  2FEC               	goto	u2931
  5656  0FEB  2FED               	goto	u2930
  5657  0FEC                     u2931:
  5658  0FEC  2FEF               	goto	l2587
  5659  0FED                     u2930:
  5660  0FED                     l2585:
  5661  0FED  17B4               	bsf	___fldiv@b+2,7
  5662  0FEE  2FF3               	goto	l748
  5663  0FEF                     l2587:
  5664  0FEF  307F               	movlw	127
  5665  0FF0  00B6               	movwf	??___fldiv
  5666  0FF1  0836               	movf	??___fldiv,w
  5667  0FF2  05B4               	andwf	___fldiv@b+2,f
  5668  0FF3                     l748:
  5669  0FF3  0846               	movf	___fldiv@bexp,w
  5670  0FF4  00B6               	movwf	??___fldiv
  5671  0FF5  1003               	clrc
  5672  0FF6  0C36               	rrf	??___fldiv,w
  5673  0FF7  00B7               	movwf	??___fldiv+1
  5674  0FF8  0837               	movf	??___fldiv+1,w
  5675  0FF9  00B5               	movwf	___fldiv@b+3
  5676  0FFA  083F               	movf	___fldiv@sign,w
  5677  0FFB  00B6               	movwf	??___fldiv
  5678  0FFC  0836               	movf	??___fldiv,w
  5679  0FFD  04B5               	iorwf	___fldiv@b+3,f
  5680  0FFE  2E97               	goto	l2495
  5681  0FFF                     l726:
  5682  0FFF  0008               	return
  5683  1000                     __end_of___fldiv:
  5684                           
  5685                           	psect	text15
  5686  0024                     __ptext15:	
  5687 ;; *************** function ___fladd *****************
  5688 ;; Defined at:
  5689 ;;		line 10 in file "C:\Program Files\Microchip\xc8\v2.35\pic\sources\c90\common\sprcadd.c"
  5690 ;; Parameters:    Size  Location     Type
  5691 ;;  b               4   66[BANK0 ] unsigned char 
  5692 ;;  a               4   70[BANK0 ] unsigned char 
  5693 ;; Auto vars:     Size  Location     Type
  5694 ;;  grs             1   77[BANK0 ] unsigned char 
  5695 ;;  bexp            1   76[BANK0 ] unsigned char 
  5696 ;;  aexp            1   75[BANK0 ] unsigned char 
  5697 ;;  signs           1   74[BANK0 ] unsigned char 
  5698 ;; Return value:  Size  Location     Type
  5699 ;;                  4   66[BANK0 ] unsigned char 
  5700 ;; Registers used:
  5701 ;;		wreg, status,2, status,0, btemp+1
  5702 ;; Tracked objects:
  5703 ;;		On entry : 0/0
  5704 ;;		On exit  : 0/0
  5705 ;;		Unchanged: 0/0
  5706 ;; Data sizes:     COMMON   BANK0   BANK1   BANK3   BANK2
  5707 ;;      Params:         0       8       0       0       0
  5708 ;;      Locals:         0       4       0       0       0
  5709 ;;      Temps:          0       0       8       0       0
  5710 ;;      Totals:         0      12       8       0       0
  5711 ;;Total ram usage:       20 bytes
  5712 ;; Hardware stack levels used: 1
  5713 ;; Hardware stack levels required when called: 2
  5714 ;; This function calls:
  5715 ;;		Nothing
  5716 ;; This function is called by:
  5717 ;;		_map
  5718 ;; This function uses a non-reentrant model
  5719 ;;
  5720                           
  5721  0024                     ___fladd:	
  5722                           ;psect for function ___fladd
  5723                           
  5724  0024                     l2257:	
  5725                           ;incstack = 0
  5726                           ; Regs used in ___fladd: [wreg+status,2+status,0+btemp+1]
  5727                           
  5728  0024  1283               	bcf	3,5	;RP0=0, select bank0
  5729  0025  1303               	bcf	3,6	;RP1=0, select bank0
  5730  0026  0865               	movf	___fladd@b+3,w
  5731  0027  3980               	andlw	128
  5732  0028  1683               	bsf	3,5	;RP0=1, select bank1
  5733  0029  1303               	bcf	3,6	;RP1=0, select bank1
  5734  002A  00A0               	movwf	??___fladd^(0+128)
  5735  002B  0820               	movf	??___fladd^(0+128),w
  5736  002C  1283               	bcf	3,5	;RP0=0, select bank0
  5737  002D  1303               	bcf	3,6	;RP1=0, select bank0
  5738  002E  00EA               	movwf	___fladd@signs
  5739  002F                     l2259:
  5740  002F  0865               	movf	___fladd@b+3,w
  5741  0030  1683               	bsf	3,5	;RP0=1, select bank1
  5742  0031  1303               	bcf	3,6	;RP1=0, select bank1
  5743  0032  00A0               	movwf	??___fladd^(0+128)
  5744  0033  0720               	addwf	??___fladd^(0+128),w
  5745  0034  00A1               	movwf	(??___fladd+1)^(0+128)
  5746  0035  0821               	movf	(??___fladd+1)^(0+128),w
  5747  0036  1283               	bcf	3,5	;RP0=0, select bank0
  5748  0037  1303               	bcf	3,6	;RP1=0, select bank0
  5749  0038  00EC               	movwf	___fladd@bexp
  5750  0039                     l2261:
  5751  0039  1FE4               	btfss	___fladd@b+2,7
  5752  003A  283C               	goto	u2191
  5753  003B  283D               	goto	u2190
  5754  003C                     u2191:
  5755  003C  283E               	goto	l2265
  5756  003D                     u2190:
  5757  003D                     l2263:
  5758  003D  146C               	bsf	___fladd@bexp,0
  5759  003E                     l2265:
  5760  003E  086C               	movf	___fladd@bexp,w
  5761  003F  1903               	btfsc	3,2
  5762  0040  2842               	goto	u2201
  5763  0041  2843               	goto	u2200
  5764  0042                     u2201:
  5765  0042  2853               	goto	l2275
  5766  0043                     u2200:
  5767  0043                     l2267:
  5768  0043  0A6C               	incf	___fladd@bexp,w
  5769  0044  1D03               	btfss	3,2
  5770  0045  2847               	goto	u2211
  5771  0046  2848               	goto	u2210
  5772  0047                     u2211:
  5773  0047  2850               	goto	l2271
  5774  0048                     u2210:
  5775  0048                     l2269:
  5776  0048  3000               	movlw	0
  5777  0049  00E5               	movwf	___fladd@b+3
  5778  004A  3000               	movlw	0
  5779  004B  00E4               	movwf	___fladd@b+2
  5780  004C  3000               	movlw	0
  5781  004D  00E3               	movwf	___fladd@b+1
  5782  004E  3000               	movlw	0
  5783  004F  00E2               	movwf	___fladd@b
  5784  0050                     l2271:
  5785  0050  17E4               	bsf	___fladd@b+2,7
  5786  0051                     l2273:
  5787  0051  01E5               	clrf	___fladd@b+3
  5788  0052  285B               	goto	l2277
  5789  0053                     l2275:
  5790  0053  3000               	movlw	0
  5791  0054  00E5               	movwf	___fladd@b+3
  5792  0055  3000               	movlw	0
  5793  0056  00E4               	movwf	___fladd@b+2
  5794  0057  3000               	movlw	0
  5795  0058  00E3               	movwf	___fladd@b+1
  5796  0059  3000               	movlw	0
  5797  005A  00E2               	movwf	___fladd@b
  5798  005B                     l2277:
  5799  005B  0869               	movf	___fladd@a+3,w
  5800  005C  3980               	andlw	128
  5801  005D  1683               	bsf	3,5	;RP0=1, select bank1
  5802  005E  1303               	bcf	3,6	;RP1=0, select bank1
  5803  005F  00A0               	movwf	??___fladd^(0+128)
  5804  0060  0820               	movf	??___fladd^(0+128),w
  5805  0061  1283               	bcf	3,5	;RP0=0, select bank0
  5806  0062  1303               	bcf	3,6	;RP1=0, select bank0
  5807  0063  00EB               	movwf	___fladd@aexp
  5808  0064                     l2279:
  5809  0064  086B               	movf	___fladd@aexp,w
  5810  0065  066A               	xorwf	___fladd@signs,w
  5811  0066  1903               	skipnz
  5812  0067  2869               	goto	u2221
  5813  0068  286A               	goto	u2220
  5814  0069                     u2221:
  5815  0069  286B               	goto	l2283
  5816  006A                     u2220:
  5817  006A                     l2281:
  5818  006A  176A               	bsf	___fladd@signs,6
  5819  006B                     l2283:
  5820  006B  0869               	movf	___fladd@a+3,w
  5821  006C  1683               	bsf	3,5	;RP0=1, select bank1
  5822  006D  1303               	bcf	3,6	;RP1=0, select bank1
  5823  006E  00A0               	movwf	??___fladd^(0+128)
  5824  006F  0720               	addwf	??___fladd^(0+128),w
  5825  0070  00A1               	movwf	(??___fladd+1)^(0+128)
  5826  0071  0821               	movf	(??___fladd+1)^(0+128),w
  5827  0072  1283               	bcf	3,5	;RP0=0, select bank0
  5828  0073  1303               	bcf	3,6	;RP1=0, select bank0
  5829  0074  00EB               	movwf	___fladd@aexp
  5830  0075                     l2285:
  5831  0075  1FE8               	btfss	___fladd@a+2,7
  5832  0076  2878               	goto	u2231
  5833  0077  2879               	goto	u2230
  5834  0078                     u2231:
  5835  0078  287A               	goto	l2289
  5836  0079                     u2230:
  5837  0079                     l2287:
  5838  0079  146B               	bsf	___fladd@aexp,0
  5839  007A                     l2289:
  5840  007A  086B               	movf	___fladd@aexp,w
  5841  007B  1903               	btfsc	3,2
  5842  007C  287E               	goto	u2241
  5843  007D  287F               	goto	u2240
  5844  007E                     u2241:
  5845  007E  288F               	goto	l2299
  5846  007F                     u2240:
  5847  007F                     l2291:
  5848  007F  0A6B               	incf	___fladd@aexp,w
  5849  0080  1D03               	btfss	3,2
  5850  0081  2883               	goto	u2251
  5851  0082  2884               	goto	u2250
  5852  0083                     u2251:
  5853  0083  288C               	goto	l2295
  5854  0084                     u2250:
  5855  0084                     l2293:
  5856  0084  3000               	movlw	0
  5857  0085  00E9               	movwf	___fladd@a+3
  5858  0086  3000               	movlw	0
  5859  0087  00E8               	movwf	___fladd@a+2
  5860  0088  3000               	movlw	0
  5861  0089  00E7               	movwf	___fladd@a+1
  5862  008A  3000               	movlw	0
  5863  008B  00E6               	movwf	___fladd@a
  5864  008C                     l2295:
  5865  008C  17E8               	bsf	___fladd@a+2,7
  5866  008D                     l2297:
  5867  008D  01E9               	clrf	___fladd@a+3
  5868  008E  2897               	goto	l668
  5869  008F                     l2299:
  5870  008F  3000               	movlw	0
  5871  0090  00E9               	movwf	___fladd@a+3
  5872  0091  3000               	movlw	0
  5873  0092  00E8               	movwf	___fladd@a+2
  5874  0093  3000               	movlw	0
  5875  0094  00E7               	movwf	___fladd@a+1
  5876  0095  3000               	movlw	0
  5877  0096  00E6               	movwf	___fladd@a
  5878  0097                     l668:
  5879  0097  086C               	movf	___fladd@bexp,w
  5880  0098  026B               	subwf	___fladd@aexp,w
  5881  0099  1803               	skipnc
  5882  009A  289C               	goto	u2261
  5883  009B  289D               	goto	u2260
  5884  009C                     u2261:
  5885  009C  2921               	goto	l2335
  5886  009D                     u2260:
  5887  009D                     l2301:
  5888  009D  1F6A               	btfss	___fladd@signs,6
  5889  009E  28A0               	goto	u2271
  5890  009F  28A1               	goto	u2270
  5891  00A0                     u2271:
  5892  00A0  28A9               	goto	l2305
  5893  00A1                     u2270:
  5894  00A1                     l2303:
  5895  00A1  3080               	movlw	128
  5896  00A2  1683               	bsf	3,5	;RP0=1, select bank1
  5897  00A3  1303               	bcf	3,6	;RP1=0, select bank1
  5898  00A4  00A0               	movwf	??___fladd^(0+128)
  5899  00A5  0820               	movf	??___fladd^(0+128),w
  5900  00A6  1283               	bcf	3,5	;RP0=0, select bank0
  5901  00A7  1303               	bcf	3,6	;RP1=0, select bank0
  5902  00A8  06EA               	xorwf	___fladd@signs,f
  5903  00A9                     l2305:
  5904  00A9  086C               	movf	___fladd@bexp,w
  5905  00AA  1683               	bsf	3,5	;RP0=1, select bank1
  5906  00AB  1303               	bcf	3,6	;RP1=0, select bank1
  5907  00AC  00A0               	movwf	??___fladd^(0+128)
  5908  00AD  0820               	movf	??___fladd^(0+128),w
  5909  00AE  1283               	bcf	3,5	;RP0=0, select bank0
  5910  00AF  1303               	bcf	3,6	;RP1=0, select bank0
  5911  00B0  00ED               	movwf	___fladd@grs
  5912  00B1                     l2307:
  5913  00B1  086B               	movf	___fladd@aexp,w
  5914  00B2  1683               	bsf	3,5	;RP0=1, select bank1
  5915  00B3  1303               	bcf	3,6	;RP1=0, select bank1
  5916  00B4  00A0               	movwf	??___fladd^(0+128)
  5917  00B5  0820               	movf	??___fladd^(0+128),w
  5918  00B6  1283               	bcf	3,5	;RP0=0, select bank0
  5919  00B7  1303               	bcf	3,6	;RP1=0, select bank0
  5920  00B8  00EC               	movwf	___fladd@bexp
  5921  00B9                     l2309:
  5922  00B9  086D               	movf	___fladd@grs,w
  5923  00BA  1683               	bsf	3,5	;RP0=1, select bank1
  5924  00BB  1303               	bcf	3,6	;RP1=0, select bank1
  5925  00BC  00A0               	movwf	??___fladd^(0+128)
  5926  00BD  0820               	movf	??___fladd^(0+128),w
  5927  00BE  1283               	bcf	3,5	;RP0=0, select bank0
  5928  00BF  1303               	bcf	3,6	;RP1=0, select bank0
  5929  00C0  00EB               	movwf	___fladd@aexp
  5930  00C1                     l2311:
  5931  00C1  0862               	movf	___fladd@b,w
  5932  00C2  1683               	bsf	3,5	;RP0=1, select bank1
  5933  00C3  1303               	bcf	3,6	;RP1=0, select bank1
  5934  00C4  00A0               	movwf	??___fladd^(0+128)
  5935  00C5  0820               	movf	??___fladd^(0+128),w
  5936  00C6  1283               	bcf	3,5	;RP0=0, select bank0
  5937  00C7  1303               	bcf	3,6	;RP1=0, select bank0
  5938  00C8  00ED               	movwf	___fladd@grs
  5939  00C9                     l2313:
  5940  00C9  0866               	movf	___fladd@a,w
  5941  00CA  1683               	bsf	3,5	;RP0=1, select bank1
  5942  00CB  1303               	bcf	3,6	;RP1=0, select bank1
  5943  00CC  00A0               	movwf	??___fladd^(0+128)
  5944  00CD  0820               	movf	??___fladd^(0+128),w
  5945  00CE  1283               	bcf	3,5	;RP0=0, select bank0
  5946  00CF  1303               	bcf	3,6	;RP1=0, select bank0
  5947  00D0  00E2               	movwf	___fladd@b
  5948  00D1                     l2315:
  5949  00D1  086D               	movf	___fladd@grs,w
  5950  00D2  1683               	bsf	3,5	;RP0=1, select bank1
  5951  00D3  1303               	bcf	3,6	;RP1=0, select bank1
  5952  00D4  00A0               	movwf	??___fladd^(0+128)
  5953  00D5  0820               	movf	??___fladd^(0+128),w
  5954  00D6  1283               	bcf	3,5	;RP0=0, select bank0
  5955  00D7  1303               	bcf	3,6	;RP1=0, select bank0
  5956  00D8  00E6               	movwf	___fladd@a
  5957  00D9                     l2317:
  5958  00D9  0863               	movf	___fladd@b+1,w
  5959  00DA  1683               	bsf	3,5	;RP0=1, select bank1
  5960  00DB  1303               	bcf	3,6	;RP1=0, select bank1
  5961  00DC  00A0               	movwf	??___fladd^(0+128)
  5962  00DD  0820               	movf	??___fladd^(0+128),w
  5963  00DE  1283               	bcf	3,5	;RP0=0, select bank0
  5964  00DF  1303               	bcf	3,6	;RP1=0, select bank0
  5965  00E0  00ED               	movwf	___fladd@grs
  5966  00E1                     l2319:
  5967  00E1  0867               	movf	___fladd@a+1,w
  5968  00E2  1683               	bsf	3,5	;RP0=1, select bank1
  5969  00E3  1303               	bcf	3,6	;RP1=0, select bank1
  5970  00E4  00A0               	movwf	??___fladd^(0+128)
  5971  00E5  0820               	movf	??___fladd^(0+128),w
  5972  00E6  1283               	bcf	3,5	;RP0=0, select bank0
  5973  00E7  1303               	bcf	3,6	;RP1=0, select bank0
  5974  00E8  00E3               	movwf	___fladd@b+1
  5975  00E9                     l2321:
  5976  00E9  086D               	movf	___fladd@grs,w
  5977  00EA  1683               	bsf	3,5	;RP0=1, select bank1
  5978  00EB  1303               	bcf	3,6	;RP1=0, select bank1
  5979  00EC  00A0               	movwf	??___fladd^(0+128)
  5980  00ED  0820               	movf	??___fladd^(0+128),w
  5981  00EE  1283               	bcf	3,5	;RP0=0, select bank0
  5982  00EF  1303               	bcf	3,6	;RP1=0, select bank0
  5983  00F0  00E7               	movwf	___fladd@a+1
  5984  00F1                     l2323:
  5985  00F1  0864               	movf	___fladd@b+2,w
  5986  00F2  1683               	bsf	3,5	;RP0=1, select bank1
  5987  00F3  1303               	bcf	3,6	;RP1=0, select bank1
  5988  00F4  00A0               	movwf	??___fladd^(0+128)
  5989  00F5  0820               	movf	??___fladd^(0+128),w
  5990  00F6  1283               	bcf	3,5	;RP0=0, select bank0
  5991  00F7  1303               	bcf	3,6	;RP1=0, select bank0
  5992  00F8  00ED               	movwf	___fladd@grs
  5993  00F9                     l2325:
  5994  00F9  0868               	movf	___fladd@a+2,w
  5995  00FA  1683               	bsf	3,5	;RP0=1, select bank1
  5996  00FB  1303               	bcf	3,6	;RP1=0, select bank1
  5997  00FC  00A0               	movwf	??___fladd^(0+128)
  5998  00FD  0820               	movf	??___fladd^(0+128),w
  5999  00FE  1283               	bcf	3,5	;RP0=0, select bank0
  6000  00FF  1303               	bcf	3,6	;RP1=0, select bank0
  6001  0100  00E4               	movwf	___fladd@b+2
  6002  0101                     l2327:
  6003  0101  086D               	movf	___fladd@grs,w
  6004  0102  1683               	bsf	3,5	;RP0=1, select bank1
  6005  0103  1303               	bcf	3,6	;RP1=0, select bank1
  6006  0104  00A0               	movwf	??___fladd^(0+128)
  6007  0105  0820               	movf	??___fladd^(0+128),w
  6008  0106  1283               	bcf	3,5	;RP0=0, select bank0
  6009  0107  1303               	bcf	3,6	;RP1=0, select bank0
  6010  0108  00E8               	movwf	___fladd@a+2
  6011  0109                     l2329:
  6012  0109  0865               	movf	___fladd@b+3,w
  6013  010A  1683               	bsf	3,5	;RP0=1, select bank1
  6014  010B  1303               	bcf	3,6	;RP1=0, select bank1
  6015  010C  00A0               	movwf	??___fladd^(0+128)
  6016  010D  0820               	movf	??___fladd^(0+128),w
  6017  010E  1283               	bcf	3,5	;RP0=0, select bank0
  6018  010F  1303               	bcf	3,6	;RP1=0, select bank0
  6019  0110  00ED               	movwf	___fladd@grs
  6020  0111                     l2331:
  6021  0111  0869               	movf	___fladd@a+3,w
  6022  0112  1683               	bsf	3,5	;RP0=1, select bank1
  6023  0113  1303               	bcf	3,6	;RP1=0, select bank1
  6024  0114  00A0               	movwf	??___fladd^(0+128)
  6025  0115  0820               	movf	??___fladd^(0+128),w
  6026  0116  1283               	bcf	3,5	;RP0=0, select bank0
  6027  0117  1303               	bcf	3,6	;RP1=0, select bank0
  6028  0118  00E5               	movwf	___fladd@b+3
  6029  0119                     l2333:
  6030  0119  086D               	movf	___fladd@grs,w
  6031  011A  1683               	bsf	3,5	;RP0=1, select bank1
  6032  011B  1303               	bcf	3,6	;RP1=0, select bank1
  6033  011C  00A0               	movwf	??___fladd^(0+128)
  6034  011D  0820               	movf	??___fladd^(0+128),w
  6035  011E  1283               	bcf	3,5	;RP0=0, select bank0
  6036  011F  1303               	bcf	3,6	;RP1=0, select bank0
  6037  0120  00E9               	movwf	___fladd@a+3
  6038  0121                     l2335:
  6039  0121  01ED               	clrf	___fladd@grs
  6040  0122                     l2337:
  6041  0122  086B               	movf	___fladd@aexp,w
  6042  0123  1683               	bsf	3,5	;RP0=1, select bank1
  6043  0124  1303               	bcf	3,6	;RP1=0, select bank1
  6044  0125  00A0               	movwf	??___fladd^(0+128)
  6045  0126  01A1               	clrf	(??___fladd^(0+128)+1)
  6046  0127  0821               	movf	(??___fladd+1)^(0+128),w
  6047  0128  00A3               	movwf	((??___fladd+2)^(0+128)+1)
  6048  0129  1283               	bcf	3,5	;RP0=0, select bank0
  6049  012A  1303               	bcf	3,6	;RP1=0, select bank0
  6050  012B  086C               	movf	___fladd@bexp,w
  6051  012C  1683               	bsf	3,5	;RP0=1, select bank1
  6052  012D  1303               	bcf	3,6	;RP1=0, select bank1
  6053  012E  0220               	subwf	??___fladd^(0+128),w
  6054  012F  00A2               	movwf	(??___fladd+2)^(0+128)
  6055  0130  1C03               	skipc
  6056  0131  03A3               	decf	((??___fladd+2)^(0+128)+1),f
  6057  0132  0823               	movf	(??___fladd+3)^(0+128),w
  6058  0133  3A80               	xorlw	128
  6059  0134  00FF               	movwf	btemp+1
  6060  0135  3080               	movlw	128
  6061  0136  027F               	subwf	btemp+1,w
  6062  0137  1D03               	skipz
  6063  0138  293B               	goto	u2285
  6064  0139  301A               	movlw	26
  6065  013A  0222               	subwf	(??___fladd+2)^(0+128),w
  6066  013B                     u2285:
  6067  013B  1C03               	skipc
  6068  013C  293E               	goto	u2281
  6069  013D  293F               	goto	u2280
  6070  013E                     u2281:
  6071  013E  2990               	goto	l2353
  6072  013F                     u2280:
  6073  013F                     l2339:
  6074  013F  1283               	bcf	3,5	;RP0=0, select bank0
  6075  0140  1303               	bcf	3,6	;RP1=0, select bank0
  6076  0141  0865               	movf	___fladd@b+3,w
  6077  0142  0464               	iorwf	___fladd@b+2,w
  6078  0143  0463               	iorwf	___fladd@b+1,w
  6079  0144  0462               	iorwf	___fladd@b,w
  6080  0145  1D03               	skipz
  6081  0146  2948               	goto	u2291
  6082  0147  294A               	goto	u2290
  6083  0148                     u2291:
  6084  0148  3001               	movlw	1
  6085  0149  294B               	goto	u2300
  6086  014A                     u2290:
  6087  014A  3000               	movlw	0
  6088  014B                     u2300:
  6089  014B  1683               	bsf	3,5	;RP0=1, select bank1
  6090  014C  1303               	bcf	3,6	;RP1=0, select bank1
  6091  014D  00A0               	movwf	??___fladd^(0+128)
  6092  014E  0820               	movf	??___fladd^(0+128),w
  6093  014F  1283               	bcf	3,5	;RP0=0, select bank0
  6094  0150  1303               	bcf	3,6	;RP1=0, select bank0
  6095  0151  00ED               	movwf	___fladd@grs
  6096  0152  3000               	movlw	0
  6097  0153  00E5               	movwf	___fladd@b+3
  6098  0154  3000               	movlw	0
  6099  0155  00E4               	movwf	___fladd@b+2
  6100  0156  3000               	movlw	0
  6101  0157  00E3               	movwf	___fladd@b+1
  6102  0158  3000               	movlw	0
  6103  0159  00E2               	movwf	___fladd@b
  6104  015A  086B               	movf	___fladd@aexp,w
  6105  015B  1683               	bsf	3,5	;RP0=1, select bank1
  6106  015C  1303               	bcf	3,6	;RP1=0, select bank1
  6107  015D  00A0               	movwf	??___fladd^(0+128)
  6108  015E  0820               	movf	??___fladd^(0+128),w
  6109  015F  1283               	bcf	3,5	;RP0=0, select bank0
  6110  0160  1303               	bcf	3,6	;RP1=0, select bank0
  6111  0161  00EC               	movwf	___fladd@bexp
  6112  0162  2998               	goto	l672
  6113  0163                     l674:
  6114  0163  1C6D               	btfss	___fladd@grs,0
  6115  0164  2966               	goto	u2311
  6116  0165  2967               	goto	u2310
  6117  0166                     u2311:
  6118  0166  2974               	goto	l2343
  6119  0167                     u2310:
  6120  0167                     l2341:
  6121  0167  086D               	movf	___fladd@grs,w
  6122  0168  1683               	bsf	3,5	;RP0=1, select bank1
  6123  0169  1303               	bcf	3,6	;RP1=0, select bank1
  6124  016A  00A0               	movwf	??___fladd^(0+128)
  6125  016B  1003               	clrc
  6126  016C  0C20               	rrf	??___fladd^(0+128),w
  6127  016D  3801               	iorlw	1
  6128  016E  00A1               	movwf	(??___fladd+1)^(0+128)
  6129  016F  0821               	movf	(??___fladd+1)^(0+128),w
  6130  0170  1283               	bcf	3,5	;RP0=0, select bank0
  6131  0171  1303               	bcf	3,6	;RP1=0, select bank0
  6132  0172  00ED               	movwf	___fladd@grs
  6133  0173  2976               	goto	l2345
  6134  0174                     l2343:
  6135  0174  1003               	clrc
  6136  0175  0CED               	rrf	___fladd@grs,f
  6137  0176                     l2345:
  6138  0176  1C62               	btfss	___fladd@b,0
  6139  0177  2979               	goto	u2321
  6140  0178  297A               	goto	u2320
  6141  0179                     u2321:
  6142  0179  297B               	goto	l2349
  6143  017A                     u2320:
  6144  017A                     l2347:
  6145  017A  17ED               	bsf	___fladd@grs,7
  6146  017B                     l2349:
  6147  017B  3001               	movlw	1
  6148  017C  1683               	bsf	3,5	;RP0=1, select bank1
  6149  017D  1303               	bcf	3,6	;RP1=0, select bank1
  6150  017E  00A0               	movwf	??___fladd^(0+128)
  6151  017F                     u2335:
  6152  017F  1283               	bcf	3,5	;RP0=0, select bank0
  6153  0180  1303               	bcf	3,6	;RP1=0, select bank0
  6154  0181  0D65               	rlf	___fladd@b+3,w
  6155  0182  0CE5               	rrf	___fladd@b+3,f
  6156  0183  0CE4               	rrf	___fladd@b+2,f
  6157  0184  0CE3               	rrf	___fladd@b+1,f
  6158  0185  0CE2               	rrf	___fladd@b,f
  6159  0186  1683               	bsf	3,5	;RP0=1, select bank1
  6160  0187  1303               	bcf	3,6	;RP1=0, select bank1
  6161  0188  0BA0               	decfsz	(??___fladd^(0+128))& (0+127),f
  6162  0189  297F               	goto	u2335
  6163  018A                     l2351:
  6164  018A  3001               	movlw	1
  6165  018B  00A0               	movwf	??___fladd^(0+128)
  6166  018C  0820               	movf	??___fladd^(0+128),w
  6167  018D  1283               	bcf	3,5	;RP0=0, select bank0
  6168  018E  1303               	bcf	3,6	;RP1=0, select bank0
  6169  018F  07EC               	addwf	___fladd@bexp,f
  6170  0190                     l2353:
  6171  0190  1283               	bcf	3,5	;RP0=0, select bank0
  6172  0191  1303               	bcf	3,6	;RP1=0, select bank0
  6173  0192  086B               	movf	___fladd@aexp,w
  6174  0193  026C               	subwf	___fladd@bexp,w
  6175  0194  1C03               	skipc
  6176  0195  2997               	goto	u2341
  6177  0196  2998               	goto	u2340
  6178  0197                     u2341:
  6179  0197  2963               	goto	l674
  6180  0198                     u2340:
  6181  0198                     l672:
  6182  0198  1B6A               	btfsc	___fladd@signs,6
  6183  0199  299B               	goto	u2351
  6184  019A  299C               	goto	u2350
  6185  019B                     u2351:
  6186  019B  29F3               	goto	l2379
  6187  019C                     u2350:
  6188  019C                     l2355:
  6189  019C  086C               	movf	___fladd@bexp,w
  6190  019D  1D03               	btfss	3,2
  6191  019E  29A0               	goto	u2361
  6192  019F  29A1               	goto	u2360
  6193  01A0                     u2361:
  6194  01A0  29AA               	goto	l2361
  6195  01A1                     u2360:
  6196  01A1                     l2357:
  6197  01A1  3000               	movlw	0
  6198  01A2  00E5               	movwf	?___fladd+3
  6199  01A3  3000               	movlw	0
  6200  01A4  00E4               	movwf	?___fladd+2
  6201  01A5  3000               	movlw	0
  6202  01A6  00E3               	movwf	?___fladd+1
  6203  01A7  3000               	movlw	0
  6204  01A8  00E2               	movwf	?___fladd
  6205  01A9  2B89               	goto	l681
  6206  01AA                     l2361:
  6207  01AA  0866               	movf	___fladd@a,w
  6208  01AB  07E2               	addwf	___fladd@b,f
  6209  01AC  0867               	movf	___fladd@a+1,w
  6210  01AD  1103               	clrz
  6211  01AE  1803               	skipnc
  6212  01AF  3E01               	addlw	1
  6213  01B0  1903               	skipnz
  6214  01B1  29B3               	goto	u2371
  6215  01B2  07E3               	addwf	___fladd@b+1,f
  6216  01B3                     u2371:
  6217  01B3  0868               	movf	___fladd@a+2,w
  6218  01B4  1103               	clrz
  6219  01B5  1803               	skipnc
  6220  01B6  3E01               	addlw	1
  6221  01B7  1903               	skipnz
  6222  01B8  29BA               	goto	u2372
  6223  01B9  07E4               	addwf	___fladd@b+2,f
  6224  01BA                     u2372:
  6225  01BA  0869               	movf	___fladd@a+3,w
  6226  01BB  1103               	clrz
  6227  01BC  1803               	skipnc
  6228  01BD  3E01               	addlw	1
  6229  01BE  1903               	skipnz
  6230  01BF  29C1               	goto	u2373
  6231  01C0  07E5               	addwf	___fladd@b+3,f
  6232  01C1                     u2373:
  6233  01C1                     l2363:
  6234  01C1  1C65               	btfss	___fladd@b+3,0
  6235  01C2  29C4               	goto	u2381
  6236  01C3  29C5               	goto	u2380
  6237  01C4                     u2381:
  6238  01C4  2AE7               	goto	l2413
  6239  01C5                     u2380:
  6240  01C5                     l2365:
  6241  01C5  1C6D               	btfss	___fladd@grs,0
  6242  01C6  29C8               	goto	u2391
  6243  01C7  29C9               	goto	u2390
  6244  01C8                     u2391:
  6245  01C8  29D6               	goto	l2369
  6246  01C9                     u2390:
  6247  01C9                     l2367:
  6248  01C9  086D               	movf	___fladd@grs,w
  6249  01CA  1683               	bsf	3,5	;RP0=1, select bank1
  6250  01CB  1303               	bcf	3,6	;RP1=0, select bank1
  6251  01CC  00A0               	movwf	??___fladd^(0+128)
  6252  01CD  1003               	clrc
  6253  01CE  0C20               	rrf	??___fladd^(0+128),w
  6254  01CF  3801               	iorlw	1
  6255  01D0  00A1               	movwf	(??___fladd+1)^(0+128)
  6256  01D1  0821               	movf	(??___fladd+1)^(0+128),w
  6257  01D2  1283               	bcf	3,5	;RP0=0, select bank0
  6258  01D3  1303               	bcf	3,6	;RP1=0, select bank0
  6259  01D4  00ED               	movwf	___fladd@grs
  6260  01D5  29D8               	goto	l2371
  6261  01D6                     l2369:
  6262  01D6  1003               	clrc
  6263  01D7  0CED               	rrf	___fladd@grs,f
  6264  01D8                     l2371:
  6265  01D8  1C62               	btfss	___fladd@b,0
  6266  01D9  29DB               	goto	u2401
  6267  01DA  29DC               	goto	u2400
  6268  01DB                     u2401:
  6269  01DB  29DD               	goto	l2375
  6270  01DC                     u2400:
  6271  01DC                     l2373:
  6272  01DC  17ED               	bsf	___fladd@grs,7
  6273  01DD                     l2375:
  6274  01DD  3001               	movlw	1
  6275  01DE  1683               	bsf	3,5	;RP0=1, select bank1
  6276  01DF  1303               	bcf	3,6	;RP1=0, select bank1
  6277  01E0  00A0               	movwf	??___fladd^(0+128)
  6278  01E1                     u2415:
  6279  01E1  1283               	bcf	3,5	;RP0=0, select bank0
  6280  01E2  1303               	bcf	3,6	;RP1=0, select bank0
  6281  01E3  0D65               	rlf	___fladd@b+3,w
  6282  01E4  0CE5               	rrf	___fladd@b+3,f
  6283  01E5  0CE4               	rrf	___fladd@b+2,f
  6284  01E6  0CE3               	rrf	___fladd@b+1,f
  6285  01E7  0CE2               	rrf	___fladd@b,f
  6286  01E8  1683               	bsf	3,5	;RP0=1, select bank1
  6287  01E9  1303               	bcf	3,6	;RP1=0, select bank1
  6288  01EA  0BA0               	decfsz	(??___fladd^(0+128))& (0+127),f
  6289  01EB  29E1               	goto	u2415
  6290  01EC                     l2377:
  6291  01EC  3001               	movlw	1
  6292  01ED  00A0               	movwf	??___fladd^(0+128)
  6293  01EE  0820               	movf	??___fladd^(0+128),w
  6294  01EF  1283               	bcf	3,5	;RP0=0, select bank0
  6295  01F0  1303               	bcf	3,6	;RP1=0, select bank0
  6296  01F1  07EC               	addwf	___fladd@bexp,f
  6297  01F2  2AE7               	goto	l2413
  6298  01F3                     l2379:
  6299  01F3  0865               	movf	___fladd@b+3,w
  6300  01F4  3A80               	xorlw	128
  6301  01F5  00FF               	movwf	btemp+1
  6302  01F6  0869               	movf	___fladd@a+3,w
  6303  01F7  3A80               	xorlw	128
  6304  01F8  027F               	subwf	btemp+1,w
  6305  01F9  1D03               	skipz
  6306  01FA  2A05               	goto	u2423
  6307  01FB  0868               	movf	___fladd@a+2,w
  6308  01FC  0264               	subwf	___fladd@b+2,w
  6309  01FD  1D03               	skipz
  6310  01FE  2A05               	goto	u2423
  6311  01FF  0867               	movf	___fladd@a+1,w
  6312  0200  0263               	subwf	___fladd@b+1,w
  6313  0201  1D03               	skipz
  6314  0202  2A05               	goto	u2423
  6315  0203  0866               	movf	___fladd@a,w
  6316  0204  0262               	subwf	___fladd@b,w
  6317  0205                     u2423:
  6318  0205  1803               	skipnc
  6319  0206  2A08               	goto	u2421
  6320  0207  2A09               	goto	u2420
  6321  0208                     u2421:
  6322  0208  2A99               	goto	l2389
  6323  0209                     u2420:
  6324  0209                     l2381:
  6325  0209  30FF               	movlw	255
  6326  020A  1683               	bsf	3,5	;RP0=1, select bank1
  6327  020B  1303               	bcf	3,6	;RP1=0, select bank1
  6328  020C  00A0               	movwf	??___fladd^(0+128)
  6329  020D  30FF               	movlw	255
  6330  020E  00A1               	movwf	(??___fladd^(0+128)+1)
  6331  020F  30FF               	movlw	255
  6332  0210  00A2               	movwf	(??___fladd^(0+128)+2)
  6333  0211  30FF               	movlw	255
  6334  0212  00A3               	movwf	(??___fladd^(0+128)+3)
  6335  0213  1283               	bcf	3,5	;RP0=0, select bank0
  6336  0214  1303               	bcf	3,6	;RP1=0, select bank0
  6337  0215  0866               	movf	___fladd@a,w
  6338  0216  1683               	bsf	3,5	;RP0=1, select bank1
  6339  0217  1303               	bcf	3,6	;RP1=0, select bank1
  6340  0218  00A4               	movwf	(??___fladd+4)^(0+128)
  6341  0219  1283               	bcf	3,5	;RP0=0, select bank0
  6342  021A  1303               	bcf	3,6	;RP1=0, select bank0
  6343  021B  0867               	movf	___fladd@a+1,w
  6344  021C  1683               	bsf	3,5	;RP0=1, select bank1
  6345  021D  1303               	bcf	3,6	;RP1=0, select bank1
  6346  021E  00A5               	movwf	((??___fladd+4)^(0+128)+1)
  6347  021F  1283               	bcf	3,5	;RP0=0, select bank0
  6348  0220  1303               	bcf	3,6	;RP1=0, select bank0
  6349  0221  0868               	movf	___fladd@a+2,w
  6350  0222  1683               	bsf	3,5	;RP0=1, select bank1
  6351  0223  1303               	bcf	3,6	;RP1=0, select bank1
  6352  0224  00A6               	movwf	((??___fladd+4)^(0+128)+2)
  6353  0225  1283               	bcf	3,5	;RP0=0, select bank0
  6354  0226  1303               	bcf	3,6	;RP1=0, select bank0
  6355  0227  0869               	movf	___fladd@a+3,w
  6356  0228  1683               	bsf	3,5	;RP0=1, select bank1
  6357  0229  1303               	bcf	3,6	;RP1=0, select bank1
  6358  022A  00A7               	movwf	((??___fladd+4)^(0+128)+3)
  6359  022B  1283               	bcf	3,5	;RP0=0, select bank0
  6360  022C  1303               	bcf	3,6	;RP1=0, select bank0
  6361  022D  0862               	movf	___fladd@b,w
  6362  022E  1683               	bsf	3,5	;RP0=1, select bank1
  6363  022F  1303               	bcf	3,6	;RP1=0, select bank1
  6364  0230  02A4               	subwf	(??___fladd+4)^(0+128),f
  6365  0231  1283               	bcf	3,5	;RP0=0, select bank0
  6366  0232  1303               	bcf	3,6	;RP1=0, select bank0
  6367  0233  0863               	movf	___fladd@b+1,w
  6368  0234  1C03               	skipc
  6369  0235  0F63               	incfsz	___fladd@b+1,w
  6370  0236  2A38               	goto	u2431
  6371  0237  2A3B               	goto	u2432
  6372  0238                     u2431:
  6373  0238  1683               	bsf	3,5	;RP0=1, select bank1
  6374  0239  1303               	bcf	3,6	;RP1=0, select bank1
  6375  023A  02A5               	subwf	((??___fladd+4)^(0+128)+1),f
  6376  023B                     u2432:
  6377  023B  1283               	bcf	3,5	;RP0=0, select bank0
  6378  023C  1303               	bcf	3,6	;RP1=0, select bank0
  6379  023D  0864               	movf	___fladd@b+2,w
  6380  023E  1C03               	skipc
  6381  023F  0F64               	incfsz	___fladd@b+2,w
  6382  0240  2A42               	goto	u2433
  6383  0241  2A45               	goto	u2434
  6384  0242                     u2433:
  6385  0242  1683               	bsf	3,5	;RP0=1, select bank1
  6386  0243  1303               	bcf	3,6	;RP1=0, select bank1
  6387  0244  02A6               	subwf	((??___fladd+4)^(0+128)+2),f
  6388  0245                     u2434:
  6389  0245  1283               	bcf	3,5	;RP0=0, select bank0
  6390  0246  1303               	bcf	3,6	;RP1=0, select bank0
  6391  0247  0865               	movf	___fladd@b+3,w
  6392  0248  1C03               	skipc
  6393  0249  0F65               	incfsz	___fladd@b+3,w
  6394  024A  2A4C               	goto	u2435
  6395  024B  2A4F               	goto	u2436
  6396  024C                     u2435:
  6397  024C  1683               	bsf	3,5	;RP0=1, select bank1
  6398  024D  1303               	bcf	3,6	;RP1=0, select bank1
  6399  024E  02A7               	subwf	((??___fladd+4)^(0+128)+3),f
  6400  024F                     u2436:
  6401  024F  1283               	bcf	3,5	;RP0=0, select bank0
  6402  0250  1303               	bcf	3,6	;RP1=0, select bank0
  6403  0251  1683               	bsf	3,5	;RP0=1, select bank1
  6404  0252  1303               	bcf	3,6	;RP1=0, select bank1
  6405  0253  0824               	movf	(??___fladd+4)^(0+128),w
  6406  0254  07A0               	addwf	??___fladd^(0+128),f
  6407  0255  0825               	movf	(??___fladd+5)^(0+128),w
  6408  0256  1803               	skipnc
  6409  0257  0F25               	incfsz	(??___fladd+5)^(0+128),w
  6410  0258  2A5A               	goto	u2440
  6411  0259  2A5B               	goto	u2441
  6412  025A                     u2440:
  6413  025A  07A1               	addwf	(??___fladd^(0+128)+1),f
  6414  025B                     u2441:
  6415  025B  0826               	movf	(??___fladd+6)^(0+128),w
  6416  025C  1803               	skipnc
  6417  025D  0F26               	incfsz	(??___fladd+6)^(0+128),w
  6418  025E  2A60               	goto	u2442
  6419  025F  2A61               	goto	u2443
  6420  0260                     u2442:
  6421  0260  07A2               	addwf	(??___fladd^(0+128)+2),f
  6422  0261                     u2443:
  6423  0261  0827               	movf	(??___fladd+7)^(0+128),w
  6424  0262  1803               	skipnc
  6425  0263  0A27               	incf	(??___fladd+7)^(0+128),w
  6426  0264  07A3               	addwf	(??___fladd^(0+128)+3),f
  6427  0265  0823               	movf	(??___fladd+3)^(0+128),w
  6428  0266  1283               	bcf	3,5	;RP0=0, select bank0
  6429  0267  1303               	bcf	3,6	;RP1=0, select bank0
  6430  0268  00E5               	movwf	___fladd@b+3
  6431  0269  1683               	bsf	3,5	;RP0=1, select bank1
  6432  026A  1303               	bcf	3,6	;RP1=0, select bank1
  6433  026B  0822               	movf	(??___fladd+2)^(0+128),w
  6434  026C  1283               	bcf	3,5	;RP0=0, select bank0
  6435  026D  1303               	bcf	3,6	;RP1=0, select bank0
  6436  026E  00E4               	movwf	___fladd@b+2
  6437  026F  1683               	bsf	3,5	;RP0=1, select bank1
  6438  0270  1303               	bcf	3,6	;RP1=0, select bank1
  6439  0271  0821               	movf	(??___fladd+1)^(0+128),w
  6440  0272  1283               	bcf	3,5	;RP0=0, select bank0
  6441  0273  1303               	bcf	3,6	;RP1=0, select bank0
  6442  0274  00E3               	movwf	___fladd@b+1
  6443  0275  1683               	bsf	3,5	;RP0=1, select bank1
  6444  0276  1303               	bcf	3,6	;RP1=0, select bank1
  6445  0277  0820               	movf	??___fladd^(0+128),w
  6446  0278  1283               	bcf	3,5	;RP0=0, select bank0
  6447  0279  1303               	bcf	3,6	;RP1=0, select bank0
  6448  027A  00E2               	movwf	___fladd@b
  6449  027B                     l2383:
  6450  027B  3080               	movlw	128
  6451  027C  1683               	bsf	3,5	;RP0=1, select bank1
  6452  027D  1303               	bcf	3,6	;RP1=0, select bank1
  6453  027E  00A0               	movwf	??___fladd^(0+128)
  6454  027F  0820               	movf	??___fladd^(0+128),w
  6455  0280  1283               	bcf	3,5	;RP0=0, select bank0
  6456  0281  1303               	bcf	3,6	;RP1=0, select bank0
  6457  0282  06EA               	xorwf	___fladd@signs,f
  6458  0283  09ED               	comf	___fladd@grs,f
  6459  0284  0AED               	incf	___fladd@grs,f
  6460  0285                     l2385:
  6461  0285  086D               	movf	___fladd@grs,w
  6462  0286  1D03               	btfss	3,2
  6463  0287  2A89               	goto	u2451
  6464  0288  2A8A               	goto	u2450
  6465  0289                     u2451:
  6466  0289  2AA7               	goto	l689
  6467  028A                     u2450:
  6468  028A                     l2387:
  6469  028A  3001               	movlw	1
  6470  028B  07E2               	addwf	___fladd@b,f
  6471  028C  3000               	movlw	0
  6472  028D  1803               	skipnc
  6473  028E  3001               	movlw	1
  6474  028F  07E3               	addwf	___fladd@b+1,f
  6475  0290  3000               	movlw	0
  6476  0291  1803               	skipnc
  6477  0292  3001               	movlw	1
  6478  0293  07E4               	addwf	___fladd@b+2,f
  6479  0294  3000               	movlw	0
  6480  0295  1803               	skipnc
  6481  0296  3001               	movlw	1
  6482  0297  07E5               	addwf	___fladd@b+3,f
  6483  0298  2AA7               	goto	l689
  6484  0299                     l2389:
  6485  0299  0866               	movf	___fladd@a,w
  6486  029A  02E2               	subwf	___fladd@b,f
  6487  029B  0867               	movf	___fladd@a+1,w
  6488  029C  1C03               	skipc
  6489  029D  0F67               	incfsz	___fladd@a+1,w
  6490  029E  02E3               	subwf	___fladd@b+1,f
  6491  029F  0868               	movf	___fladd@a+2,w
  6492  02A0  1C03               	skipc
  6493  02A1  0F68               	incfsz	___fladd@a+2,w
  6494  02A2  02E4               	subwf	___fladd@b+2,f
  6495  02A3  0869               	movf	___fladd@a+3,w
  6496  02A4  1C03               	skipc
  6497  02A5  0F69               	incfsz	___fladd@a+3,w
  6498  02A6  02E5               	subwf	___fladd@b+3,f
  6499  02A7                     l689:
  6500  02A7  0865               	movf	___fladd@b+3,w
  6501  02A8  0464               	iorwf	___fladd@b+2,w
  6502  02A9  0463               	iorwf	___fladd@b+1,w
  6503  02AA  0462               	iorwf	___fladd@b,w
  6504  02AB  1D03               	skipz
  6505  02AC  2AAE               	goto	u2461
  6506  02AD  2AAF               	goto	u2460
  6507  02AE                     u2461:
  6508  02AE  2AE3               	goto	l2411
  6509  02AF                     u2460:
  6510  02AF                     l2391:
  6511  02AF  086D               	movf	___fladd@grs,w
  6512  02B0  1D03               	btfss	3,2
  6513  02B1  2AB3               	goto	u2471
  6514  02B2  2AB4               	goto	u2470
  6515  02B3                     u2471:
  6516  02B3  2AE3               	goto	l2411
  6517  02B4                     u2470:
  6518  02B4                     l2393:
  6519  02B4  3000               	movlw	0
  6520  02B5  00E5               	movwf	?___fladd+3
  6521  02B6  3000               	movlw	0
  6522  02B7  00E4               	movwf	?___fladd+2
  6523  02B8  3000               	movlw	0
  6524  02B9  00E3               	movwf	?___fladd+1
  6525  02BA  3000               	movlw	0
  6526  02BB  00E2               	movwf	?___fladd
  6527  02BC  2B89               	goto	l681
  6528  02BD                     l2397:
  6529  02BD  3001               	movlw	1
  6530  02BE  1683               	bsf	3,5	;RP0=1, select bank1
  6531  02BF  1303               	bcf	3,6	;RP1=0, select bank1
  6532  02C0  00A0               	movwf	??___fladd^(0+128)
  6533  02C1                     u2485:
  6534  02C1  1003               	clrc
  6535  02C2  1283               	bcf	3,5	;RP0=0, select bank0
  6536  02C3  1303               	bcf	3,6	;RP1=0, select bank0
  6537  02C4  0DE2               	rlf	___fladd@b,f
  6538  02C5  0DE3               	rlf	___fladd@b+1,f
  6539  02C6  0DE4               	rlf	___fladd@b+2,f
  6540  02C7  0DE5               	rlf	___fladd@b+3,f
  6541  02C8  1683               	bsf	3,5	;RP0=1, select bank1
  6542  02C9  1303               	bcf	3,6	;RP1=0, select bank1
  6543  02CA  0BA0               	decfsz	??___fladd^(0+128),f
  6544  02CB  2AC1               	goto	u2485
  6545  02CC                     l2399:
  6546  02CC  1283               	bcf	3,5	;RP0=0, select bank0
  6547  02CD  1303               	bcf	3,6	;RP1=0, select bank0
  6548  02CE  1FED               	btfss	___fladd@grs,7
  6549  02CF  2AD1               	goto	u2491
  6550  02D0  2AD2               	goto	u2490
  6551  02D1                     u2491:
  6552  02D1  2AD3               	goto	l693
  6553  02D2                     u2490:
  6554  02D2                     l2401:
  6555  02D2  1462               	bsf	___fladd@b,0
  6556  02D3                     l693:
  6557  02D3  1C6D               	btfss	___fladd@grs,0
  6558  02D4  2AD6               	goto	u2501
  6559  02D5  2AD7               	goto	u2500
  6560  02D6                     u2501:
  6561  02D6  2ADA               	goto	l2405
  6562  02D7                     u2500:
  6563  02D7                     l2403:
  6564  02D7  1403               	setc
  6565  02D8  0DED               	rlf	___fladd@grs,f
  6566  02D9  2ADC               	goto	l2407
  6567  02DA                     l2405:
  6568  02DA  1003               	clrc
  6569  02DB  0DED               	rlf	___fladd@grs,f
  6570  02DC                     l2407:
  6571  02DC  086C               	movf	___fladd@bexp,w
  6572  02DD  1903               	btfsc	3,2
  6573  02DE  2AE0               	goto	u2511
  6574  02DF  2AE1               	goto	u2510
  6575  02E0                     u2511:
  6576  02E0  2AE3               	goto	l2411
  6577  02E1                     u2510:
  6578  02E1                     l2409:
  6579  02E1  3001               	movlw	1
  6580  02E2  02EC               	subwf	___fladd@bexp,f
  6581  02E3                     l2411:
  6582  02E3  1FE4               	btfss	___fladd@b+2,7
  6583  02E4  2AE6               	goto	u2521
  6584  02E5  2AE7               	goto	u2520
  6585  02E6                     u2521:
  6586  02E6  2ABD               	goto	l2397
  6587  02E7                     u2520:
  6588  02E7                     l2413:
  6589  02E7  01EB               	clrf	___fladd@aexp
  6590  02E8                     l2415:
  6591  02E8  1FED               	btfss	___fladd@grs,7
  6592  02E9  2AEB               	goto	u2531
  6593  02EA  2AEC               	goto	u2530
  6594  02EB                     u2531:
  6595  02EB  2AFA               	goto	l2423
  6596  02EC                     u2530:
  6597  02EC                     l2417:
  6598  02EC  086D               	movf	___fladd@grs,w
  6599  02ED  397F               	andlw	127
  6600  02EE  1903               	btfsc	3,2
  6601  02EF  2AF1               	goto	u2541
  6602  02F0  2AF2               	goto	u2540
  6603  02F1                     u2541:
  6604  02F1  2AF5               	goto	l699
  6605  02F2                     u2540:
  6606  02F2                     l2419:
  6607  02F2  01EB               	clrf	___fladd@aexp
  6608  02F3  0AEB               	incf	___fladd@aexp,f
  6609  02F4  2AFA               	goto	l2423
  6610  02F5                     l699:
  6611  02F5  1C62               	btfss	___fladd@b,0
  6612  02F6  2AF8               	goto	u2551
  6613  02F7  2AF9               	goto	u2550
  6614  02F8                     u2551:
  6615  02F8  2AFA               	goto	l2423
  6616  02F9                     u2550:
  6617  02F9  2AF2               	goto	l2419
  6618  02FA                     l2423:
  6619  02FA  086B               	movf	___fladd@aexp,w
  6620  02FB  1903               	btfsc	3,2
  6621  02FC  2AFE               	goto	u2561
  6622  02FD  2AFF               	goto	u2560
  6623  02FE                     u2561:
  6624  02FE  2B53               	goto	l702
  6625  02FF                     u2560:
  6626  02FF                     l2425:
  6627  02FF  3001               	movlw	1
  6628  0300  07E2               	addwf	___fladd@b,f
  6629  0301  3000               	movlw	0
  6630  0302  1803               	skipnc
  6631  0303  3001               	movlw	1
  6632  0304  07E3               	addwf	___fladd@b+1,f
  6633  0305  3000               	movlw	0
  6634  0306  1803               	skipnc
  6635  0307  3001               	movlw	1
  6636  0308  07E4               	addwf	___fladd@b+2,f
  6637  0309  3000               	movlw	0
  6638  030A  1803               	skipnc
  6639  030B  3001               	movlw	1
  6640  030C  07E5               	addwf	___fladd@b+3,f
  6641  030D                     l2427:
  6642  030D  1C65               	btfss	___fladd@b+3,0
  6643  030E  2B10               	goto	u2571
  6644  030F  2B11               	goto	u2570
  6645  0310                     u2571:
  6646  0310  2B53               	goto	l702
  6647  0311                     u2570:
  6648  0311                     l2429:
  6649  0311  0862               	movf	___fladd@b,w
  6650  0312  1683               	bsf	3,5	;RP0=1, select bank1
  6651  0313  1303               	bcf	3,6	;RP1=0, select bank1
  6652  0314  00A0               	movwf	??___fladd^(0+128)
  6653  0315  1283               	bcf	3,5	;RP0=0, select bank0
  6654  0316  1303               	bcf	3,6	;RP1=0, select bank0
  6655  0317  0863               	movf	___fladd@b+1,w
  6656  0318  1683               	bsf	3,5	;RP0=1, select bank1
  6657  0319  1303               	bcf	3,6	;RP1=0, select bank1
  6658  031A  00A1               	movwf	(??___fladd^(0+128)+1)
  6659  031B  1283               	bcf	3,5	;RP0=0, select bank0
  6660  031C  1303               	bcf	3,6	;RP1=0, select bank0
  6661  031D  0864               	movf	___fladd@b+2,w
  6662  031E  1683               	bsf	3,5	;RP0=1, select bank1
  6663  031F  1303               	bcf	3,6	;RP1=0, select bank1
  6664  0320  00A2               	movwf	(??___fladd^(0+128)+2)
  6665  0321  1283               	bcf	3,5	;RP0=0, select bank0
  6666  0322  1303               	bcf	3,6	;RP1=0, select bank0
  6667  0323  0865               	movf	___fladd@b+3,w
  6668  0324  1683               	bsf	3,5	;RP0=1, select bank1
  6669  0325  1303               	bcf	3,6	;RP1=0, select bank1
  6670  0326  00A3               	movwf	(??___fladd^(0+128)+3)
  6671  0327  3001               	movlw	1
  6672  0328  00A4               	movwf	(??___fladd+4)^(0+128)
  6673  0329                     u2585:
  6674  0329  0D23               	rlf	(??___fladd^(0+128)+3),w
  6675  032A  0CA3               	rrf	(??___fladd^(0+128)+3),f
  6676  032B  0CA2               	rrf	(??___fladd^(0+128)+2),f
  6677  032C  0CA1               	rrf	(??___fladd^(0+128)+1),f
  6678  032D  0CA0               	rrf	??___fladd^(0+128),f
  6679  032E                     u2580:
  6680  032E  0BA4               	decfsz	(??___fladd+4)^(0+128),f
  6681  032F  2B29               	goto	u2585
  6682  0330  0823               	movf	(??___fladd+3)^(0+128),w
  6683  0331  1283               	bcf	3,5	;RP0=0, select bank0
  6684  0332  1303               	bcf	3,6	;RP1=0, select bank0
  6685  0333  00E5               	movwf	___fladd@b+3
  6686  0334  1683               	bsf	3,5	;RP0=1, select bank1
  6687  0335  1303               	bcf	3,6	;RP1=0, select bank1
  6688  0336  0822               	movf	(??___fladd+2)^(0+128),w
  6689  0337  1283               	bcf	3,5	;RP0=0, select bank0
  6690  0338  1303               	bcf	3,6	;RP1=0, select bank0
  6691  0339  00E4               	movwf	___fladd@b+2
  6692  033A  1683               	bsf	3,5	;RP0=1, select bank1
  6693  033B  1303               	bcf	3,6	;RP1=0, select bank1
  6694  033C  0821               	movf	(??___fladd+1)^(0+128),w
  6695  033D  1283               	bcf	3,5	;RP0=0, select bank0
  6696  033E  1303               	bcf	3,6	;RP1=0, select bank0
  6697  033F  00E3               	movwf	___fladd@b+1
  6698  0340  1683               	bsf	3,5	;RP0=1, select bank1
  6699  0341  1303               	bcf	3,6	;RP1=0, select bank1
  6700  0342  0820               	movf	??___fladd^(0+128),w
  6701  0343  1283               	bcf	3,5	;RP0=0, select bank0
  6702  0344  1303               	bcf	3,6	;RP1=0, select bank0
  6703  0345  00E2               	movwf	___fladd@b
  6704  0346  0A6C               	incf	___fladd@bexp,w
  6705  0347  1903               	btfsc	3,2
  6706  0348  2B4A               	goto	u2591
  6707  0349  2B4B               	goto	u2590
  6708  034A                     u2591:
  6709  034A  2B53               	goto	l702
  6710  034B                     u2590:
  6711  034B                     l2431:
  6712  034B  3001               	movlw	1
  6713  034C  1683               	bsf	3,5	;RP0=1, select bank1
  6714  034D  1303               	bcf	3,6	;RP1=0, select bank1
  6715  034E  00A0               	movwf	??___fladd^(0+128)
  6716  034F  0820               	movf	??___fladd^(0+128),w
  6717  0350  1283               	bcf	3,5	;RP0=0, select bank0
  6718  0351  1303               	bcf	3,6	;RP1=0, select bank0
  6719  0352  07EC               	addwf	___fladd@bexp,f
  6720  0353                     l702:
  6721  0353  0A6C               	incf	___fladd@bexp,w
  6722  0354  1903               	btfsc	3,2
  6723  0355  2B57               	goto	u2601
  6724  0356  2B58               	goto	u2600
  6725  0357                     u2601:
  6726  0357  2B5D               	goto	l2435
  6727  0358                     u2600:
  6728  0358                     l2433:
  6729  0358  086C               	movf	___fladd@bexp,w
  6730  0359  1D03               	btfss	3,2
  6731  035A  2B5C               	goto	u2611
  6732  035B  2B5D               	goto	u2610
  6733  035C                     u2611:
  6734  035C  2B6B               	goto	l2441
  6735  035D                     u2610:
  6736  035D                     l2435:
  6737  035D  3000               	movlw	0
  6738  035E  00E5               	movwf	___fladd@b+3
  6739  035F  3000               	movlw	0
  6740  0360  00E4               	movwf	___fladd@b+2
  6741  0361  3000               	movlw	0
  6742  0362  00E3               	movwf	___fladd@b+1
  6743  0363  3000               	movlw	0
  6744  0364  00E2               	movwf	___fladd@b
  6745  0365                     l2437:
  6746  0365  086C               	movf	___fladd@bexp,w
  6747  0366  1D03               	btfss	3,2
  6748  0367  2B69               	goto	u2621
  6749  0368  2B6A               	goto	u2620
  6750  0369                     u2621:
  6751  0369  2B6B               	goto	l2441
  6752  036A                     u2620:
  6753  036A                     l2439:
  6754  036A  01EA               	clrf	___fladd@signs
  6755  036B                     l2441:
  6756  036B  1C6C               	btfss	___fladd@bexp,0
  6757  036C  2B6E               	goto	u2631
  6758  036D  2B6F               	goto	u2630
  6759  036E                     u2631:
  6760  036E  2B71               	goto	l2445
  6761  036F                     u2630:
  6762  036F                     l2443:
  6763  036F  17E4               	bsf	___fladd@b+2,7
  6764  0370  2B79               	goto	l710
  6765  0371                     l2445:
  6766  0371  307F               	movlw	127
  6767  0372  1683               	bsf	3,5	;RP0=1, select bank1
  6768  0373  1303               	bcf	3,6	;RP1=0, select bank1
  6769  0374  00A0               	movwf	??___fladd^(0+128)
  6770  0375  0820               	movf	??___fladd^(0+128),w
  6771  0376  1283               	bcf	3,5	;RP0=0, select bank0
  6772  0377  1303               	bcf	3,6	;RP1=0, select bank0
  6773  0378  05E4               	andwf	___fladd@b+2,f
  6774  0379                     l710:
  6775  0379  086C               	movf	___fladd@bexp,w
  6776  037A  1683               	bsf	3,5	;RP0=1, select bank1
  6777  037B  1303               	bcf	3,6	;RP1=0, select bank1
  6778  037C  00A0               	movwf	??___fladd^(0+128)
  6779  037D  1003               	clrc
  6780  037E  0C20               	rrf	??___fladd^(0+128),w
  6781  037F  00A1               	movwf	(??___fladd+1)^(0+128)
  6782  0380  0821               	movf	(??___fladd+1)^(0+128),w
  6783  0381  1283               	bcf	3,5	;RP0=0, select bank0
  6784  0382  1303               	bcf	3,6	;RP1=0, select bank0
  6785  0383  00E5               	movwf	___fladd@b+3
  6786  0384                     l2447:
  6787  0384  1FEA               	btfss	___fladd@signs,7
  6788  0385  2B87               	goto	u2641
  6789  0386  2B88               	goto	u2640
  6790  0387                     u2641:
  6791  0387  2B89               	goto	l711
  6792  0388                     u2640:
  6793  0388                     l2449:
  6794  0388  17E5               	bsf	___fladd@b+3,7
  6795  0389                     l711:
  6796  0389                     l681:
  6797  0389  0008               	return
  6798  038A                     __end_of___fladd:
  6799                           
  6800                           	psect	text16
  6801  1654                     __ptext16:	
  6802 ;; *************** function _adc_start *****************
  6803 ;; Defined at:
  6804 ;;		line 35 in file "../LABORATORIO1.X/adc.c"
  6805 ;; Parameters:    Size  Location     Type
  6806 ;;  channel         1    wreg     unsigned char 
  6807 ;; Auto vars:     Size  Location     Type
  6808 ;;  channel         1    1[BANK0 ] unsigned char 
  6809 ;; Return value:  Size  Location     Type
  6810 ;;                  1    wreg      void 
  6811 ;; Registers used:
  6812 ;;		wreg, status,2, status,0
  6813 ;; Tracked objects:
  6814 ;;		On entry : 0/0
  6815 ;;		On exit  : 0/0
  6816 ;;		Unchanged: 0/0
  6817 ;; Data sizes:     COMMON   BANK0   BANK1   BANK3   BANK2
  6818 ;;      Params:         0       0       0       0       0
  6819 ;;      Locals:         0       1       0       0       0
  6820 ;;      Temps:          0       1       0       0       0
  6821 ;;      Totals:         0       2       0       0       0
  6822 ;;Total ram usage:        2 bytes
  6823 ;; Hardware stack levels used: 1
  6824 ;; Hardware stack levels required when called: 2
  6825 ;; This function calls:
  6826 ;;		Nothing
  6827 ;; This function is called by:
  6828 ;;		_main
  6829 ;; This function uses a non-reentrant model
  6830 ;;
  6831                           
  6832  1654                     _adc_start:	
  6833                           ;psect for function _adc_start
  6834                           
  6835                           
  6836                           ;incstack = 0
  6837                           ; Regs used in _adc_start: [wreg+status,2+status,0]
  6838                           ;adc_start@channel stored from wreg
  6839  1654  1283               	bcf	3,5	;RP0=0, select bank0
  6840  1655  1303               	bcf	3,6	;RP1=0, select bank0
  6841  1656  00A1               	movwf	adc_start@channel
  6842  1657                     l2817:
  6843                           
  6844                           ;../LABORATORIO1.X/adc.c: 37:     if(channel < 14){
  6845  1657  300E               	movlw	14
  6846  1658  0221               	subwf	adc_start@channel,w
  6847  1659  1803               	skipnc
  6848  165A  2E5C               	goto	u3521
  6849  165B  2E5D               	goto	u3520
  6850  165C                     u3521:
  6851  165C  2E67               	goto	l2821
  6852  165D                     u3520:
  6853  165D                     l2819:
  6854                           
  6855                           ;../LABORATORIO1.X/adc.c: 38:         ADCON0bits.CHS = channel;
  6856  165D  0821               	movf	adc_start@channel,w
  6857  165E  00A0               	movwf	??_adc_start
  6858  165F  0DA0               	rlf	??_adc_start,f
  6859  1660  0DA0               	rlf	??_adc_start,f
  6860  1661  081F               	movf	31,w	;volatile
  6861  1662  0620               	xorwf	??_adc_start,w
  6862  1663  39C3               	andlw	-61
  6863  1664  0620               	xorwf	??_adc_start,w
  6864  1665  009F               	movwf	31	;volatile
  6865                           
  6866                           ;../LABORATORIO1.X/adc.c: 39:     }
  6867  1666  2E69               	goto	l2823
  6868  1667                     l2821:
  6869                           
  6870                           ;../LABORATORIO1.X/adc.c: 41:         ADCON0bits.CHS = 0;
  6871  1667  30C3               	movlw	-61
  6872  1668  059F               	andwf	31,f	;volatile
  6873  1669                     l2823:
  6874                           
  6875                           ;../LABORATORIO1.X/adc.c: 43:     _delay((unsigned long)((40)*(4000000/4000000.0)));
  6876  1669  300C               	movlw	12
  6877  166A  1283               	bcf	3,5	;RP0=0, select bank0
  6878  166B  1303               	bcf	3,6	;RP1=0, select bank0
  6879  166C  00A0               	movwf	??_adc_start
  6880  166D                     u3927:
  6881  166D  0BA0               	decfsz	??_adc_start,f
  6882  166E  2E6D               	goto	u3927
  6883  166F  0000               	nop
  6884  1670                     l2825:
  6885                           
  6886                           ;../LABORATORIO1.X/adc.c: 44:     ADCON0bits.GO_nDONE = 1;
  6887  1670  1283               	bcf	3,5	;RP0=0, select bank0
  6888  1671  1303               	bcf	3,6	;RP1=0, select bank0
  6889  1672  149F               	bsf	31,1	;volatile
  6890  1673                     l80:	
  6891                           ;../LABORATORIO1.X/adc.c: 45:     while (ADCON0bits.GO){}
  6892                           
  6893  1673  189F               	btfsc	31,1	;volatile
  6894  1674  2E76               	goto	u3531
  6895  1675  2E77               	goto	u3530
  6896  1676                     u3531:
  6897  1676  2E73               	goto	l80
  6898  1677                     u3530:
  6899  1677                     l83:
  6900  1677  0008               	return
  6901  1678                     __end_of_adc_start:
  6902                           
  6903                           	psect	text17
  6904  161D                     __ptext17:	
  6905 ;; *************** function ___bmul *****************
  6906 ;; Defined at:
  6907 ;;		line 4 in file "C:\Program Files\Microchip\xc8\v2.35\pic\sources\c90\common\Umul8.c"
  6908 ;; Parameters:    Size  Location     Type
  6909 ;;  multiplier      1    wreg     unsigned char 
  6910 ;;  multiplicand    1    0[BANK0 ] unsigned char 
  6911 ;; Auto vars:     Size  Location     Type
  6912 ;;  multiplier      1    3[BANK0 ] unsigned char 
  6913 ;;  product         1    2[BANK0 ] unsigned char 
  6914 ;; Return value:  Size  Location     Type
  6915 ;;                  1    wreg      unsigned char 
  6916 ;; Registers used:
  6917 ;;		wreg, status,2, status,0
  6918 ;; Tracked objects:
  6919 ;;		On entry : 0/0
  6920 ;;		On exit  : 0/0
  6921 ;;		Unchanged: 0/0
  6922 ;; Data sizes:     COMMON   BANK0   BANK1   BANK3   BANK2
  6923 ;;      Params:         0       1       0       0       0
  6924 ;;      Locals:         0       2       0       0       0
  6925 ;;      Temps:          0       1       0       0       0
  6926 ;;      Totals:         0       4       0       0       0
  6927 ;;Total ram usage:        4 bytes
  6928 ;; Hardware stack levels used: 1
  6929 ;; Hardware stack levels required when called: 2
  6930 ;; This function calls:
  6931 ;;		Nothing
  6932 ;; This function is called by:
  6933 ;;		_main
  6934 ;; This function uses a non-reentrant model
  6935 ;;
  6936                           
  6937  161D                     ___bmul:	
  6938                           ;psect for function ___bmul
  6939                           
  6940                           
  6941                           ;incstack = 0
  6942                           ; Regs used in ___bmul: [wreg+status,2+status,0]
  6943                           ;___bmul@multiplier stored from wreg
  6944  161D  1283               	bcf	3,5	;RP0=0, select bank0
  6945  161E  1303               	bcf	3,6	;RP1=0, select bank0
  6946  161F  00A3               	movwf	___bmul@multiplier
  6947  1620                     l2921:
  6948  1620  01A2               	clrf	___bmul@product
  6949  1621                     l2923:
  6950  1621  1C23               	btfss	___bmul@multiplier,0
  6951  1622  2E24               	goto	u3611
  6952  1623  2E25               	goto	u3610
  6953  1624                     u3611:
  6954  1624  2E29               	goto	l2927
  6955  1625                     u3610:
  6956  1625                     l2925:
  6957  1625  0820               	movf	___bmul@multiplicand,w
  6958  1626  00A1               	movwf	??___bmul
  6959  1627  0821               	movf	??___bmul,w
  6960  1628  07A2               	addwf	___bmul@product,f
  6961  1629                     l2927:
  6962  1629  1003               	clrc
  6963  162A  0DA0               	rlf	___bmul@multiplicand,f
  6964  162B                     l2929:
  6965  162B  1003               	clrc
  6966  162C  0CA3               	rrf	___bmul@multiplier,f
  6967  162D  0823               	movf	___bmul@multiplier,w
  6968  162E  1D03               	btfss	3,2
  6969  162F  2E31               	goto	u3621
  6970  1630  2E32               	goto	u3620
  6971  1631                     u3621:
  6972  1631  2E21               	goto	l2923
  6973  1632                     u3620:
  6974  1632                     l2931:
  6975  1632  0822               	movf	___bmul@product,w
  6976  1633                     l401:
  6977  1633  0008               	return
  6978  1634                     __end_of___bmul:
  6979                           
  6980                           	psect	text18
  6981  1729                     __ptext18:	
  6982 ;; *************** function _Lcd_Write_String *****************
  6983 ;; Defined at:
  6984 ;;		line 101 in file "../LABORATORIO1.X/LCD.c"
  6985 ;; Parameters:    Size  Location     Type
  6986 ;;  a               2    5[BANK0 ] PTR unsigned char 
  6987 ;;		 -> STR_5(17), s(1), STR_3(19), STR_2(7), 
  6988 ;;		 -> STR_1(16), 
  6989 ;; Auto vars:     Size  Location     Type
  6990 ;;  i               2   10[BANK0 ] int 
  6991 ;; Return value:  Size  Location     Type
  6992 ;;                  1    wreg      void 
  6993 ;; Registers used:
  6994 ;;		wreg, fsr0l, fsr0h, status,2, status,0, btemp+1, pclath, cstack
  6995 ;; Tracked objects:
  6996 ;;		On entry : 0/0
  6997 ;;		On exit  : 0/0
  6998 ;;		Unchanged: 0/0
  6999 ;; Data sizes:     COMMON   BANK0   BANK1   BANK3   BANK2
  7000 ;;      Params:         0       2       0       0       0
  7001 ;;      Locals:         0       2       0       0       0
  7002 ;;      Temps:          0       3       0       0       0
  7003 ;;      Totals:         0       7       0       0       0
  7004 ;;Total ram usage:        7 bytes
  7005 ;; Hardware stack levels used: 1
  7006 ;; Hardware stack levels required when called: 4
  7007 ;; This function calls:
  7008 ;;		_Lcd_Write_Char
  7009 ;; This function is called by:
  7010 ;;		_main
  7011 ;; This function uses a non-reentrant model
  7012 ;;
  7013                           
  7014  1729                     _Lcd_Write_String:	
  7015                           ;psect for function _Lcd_Write_String
  7016                           
  7017  1729                     l3255:	
  7018                           ;incstack = 0
  7019                           ; Regs used in _Lcd_Write_String: [wreg-fsr0h+status,2+status,0+btemp+1+pclath+cstack]
  7020                           
  7021                           
  7022                           ;../LABORATORIO1.X/LCD.c: 102:     int i;;../LABORATORIO1.X/LCD.c: 103:     for (i = 0; 
      +                          a[i] != '\0'; i++)
  7023  1729  1283               	bcf	3,5	;RP0=0, select bank0
  7024  172A  1303               	bcf	3,6	;RP1=0, select bank0
  7025  172B  01AA               	clrf	Lcd_Write_String@i
  7026  172C  01AB               	clrf	Lcd_Write_String@i+1
  7027  172D  2F52               	goto	l3261
  7028  172E                     l3257:
  7029                           
  7030                           ;../LABORATORIO1.X/LCD.c: 104:         Lcd_Write_Char(a[i]);
  7031  172E  082A               	movf	Lcd_Write_String@i,w
  7032  172F  0725               	addwf	Lcd_Write_String@a,w
  7033  1730  00A8               	movwf	??_Lcd_Write_String+1
  7034  1731  0826               	movf	Lcd_Write_String@a+1,w
  7035  1732  00A7               	movwf	??_Lcd_Write_String
  7036  1733  1803               	skipnc
  7037  1734  0AA7               	incf	??_Lcd_Write_String,f
  7038  1735  1FAA               	btfss	Lcd_Write_String@i,7
  7039  1736  2F38               	goto	u3830
  7040  1737  03A7               	decf	??_Lcd_Write_String,f
  7041  1738                     u3830:
  7042  1738  1283               	bcf	3,5	;RP0=0, select bank0
  7043  1739  1303               	bcf	3,6	;RP1=0, select bank0
  7044  173A  0827               	movf	??_Lcd_Write_String,w
  7045  173B  00A9               	movwf	??_Lcd_Write_String+2
  7046  173C  0829               	movf	??_Lcd_Write_String+2,w
  7047  173D  00FF               	movwf	btemp+1
  7048  173E  0828               	movf	??_Lcd_Write_String+1,w
  7049  173F  0084               	movwf	4
  7050  1740  120A  158A  2000  160A  118A  	fcall	stringtab
  7051  1745  160A  118A  26EC  160A  118A  	fcall	_Lcd_Write_Char
  7052  174A                     l3259:
  7053  174A  3001               	movlw	1
  7054  174B  1283               	bcf	3,5	;RP0=0, select bank0
  7055  174C  1303               	bcf	3,6	;RP1=0, select bank0
  7056  174D  07AA               	addwf	Lcd_Write_String@i,f
  7057  174E  1803               	skipnc
  7058  174F  0AAB               	incf	Lcd_Write_String@i+1,f
  7059  1750  3000               	movlw	0
  7060  1751  07AB               	addwf	Lcd_Write_String@i+1,f
  7061  1752                     l3261:
  7062  1752  082A               	movf	Lcd_Write_String@i,w
  7063  1753  0725               	addwf	Lcd_Write_String@a,w
  7064  1754  00A8               	movwf	??_Lcd_Write_String+1
  7065  1755  0826               	movf	Lcd_Write_String@a+1,w
  7066  1756  00A7               	movwf	??_Lcd_Write_String
  7067  1757  1803               	skipnc
  7068  1758  0AA7               	incf	??_Lcd_Write_String,f
  7069  1759  1FAA               	btfss	Lcd_Write_String@i,7
  7070  175A  2F5C               	goto	u3840
  7071  175B  03A7               	decf	??_Lcd_Write_String,f
  7072  175C                     u3840:
  7073  175C  1283               	bcf	3,5	;RP0=0, select bank0
  7074  175D  1303               	bcf	3,6	;RP1=0, select bank0
  7075  175E  0827               	movf	??_Lcd_Write_String,w
  7076  175F  00A9               	movwf	??_Lcd_Write_String+2
  7077  1760  0829               	movf	??_Lcd_Write_String+2,w
  7078  1761  00FF               	movwf	btemp+1
  7079  1762  0828               	movf	??_Lcd_Write_String+1,w
  7080  1763  0084               	movwf	4
  7081  1764  120A  158A  2000  160A  118A  	fcall	stringtab
  7082  1769  3A00               	xorlw	0
  7083  176A  1D03               	skipz
  7084  176B  2F6D               	goto	u3851
  7085  176C  2F6E               	goto	u3850
  7086  176D                     u3851:
  7087  176D  2F2E               	goto	l3257
  7088  176E                     u3850:
  7089  176E                     l49:
  7090  176E  0008               	return
  7091  176F                     __end_of_Lcd_Write_String:
  7092                           
  7093                           	psect	text19
  7094  16EC                     __ptext19:	
  7095 ;; *************** function _Lcd_Write_Char *****************
  7096 ;; Defined at:
  7097 ;;		line 86 in file "../LABORATORIO1.X/LCD.c"
  7098 ;; Parameters:    Size  Location     Type
  7099 ;;  a               1    wreg     unsigned char 
  7100 ;; Auto vars:     Size  Location     Type
  7101 ;;  a               1    4[BANK0 ] unsigned char 
  7102 ;;  y               1    3[BANK0 ] unsigned char 
  7103 ;;  temp            1    2[BANK0 ] unsigned char 
  7104 ;; Return value:  Size  Location     Type
  7105 ;;                  1    wreg      void 
  7106 ;; Registers used:
  7107 ;;		wreg, status,2, status,0, pclath, cstack
  7108 ;; Tracked objects:
  7109 ;;		On entry : 0/0
  7110 ;;		On exit  : 0/0
  7111 ;;		Unchanged: 0/0
  7112 ;; Data sizes:     COMMON   BANK0   BANK1   BANK3   BANK2
  7113 ;;      Params:         0       0       0       0       0
  7114 ;;      Locals:         0       3       0       0       0
  7115 ;;      Temps:          0       1       0       0       0
  7116 ;;      Totals:         0       4       0       0       0
  7117 ;;Total ram usage:        4 bytes
  7118 ;; Hardware stack levels used: 1
  7119 ;; Hardware stack levels required when called: 3
  7120 ;; This function calls:
  7121 ;;		_Lcd_Port
  7122 ;; This function is called by:
  7123 ;;		_Lcd_Write_String
  7124 ;; This function uses a non-reentrant model
  7125 ;;
  7126                           
  7127  16EC                     _Lcd_Write_Char:	
  7128                           ;psect for function _Lcd_Write_Char
  7129                           
  7130                           
  7131                           ;incstack = 0
  7132                           ; Regs used in _Lcd_Write_Char: [wreg+status,2+status,0+pclath+cstack]
  7133                           ;Lcd_Write_Char@a stored from wreg
  7134  16EC  1283               	bcf	3,5	;RP0=0, select bank0
  7135  16ED  1303               	bcf	3,6	;RP1=0, select bank0
  7136  16EE  00A4               	movwf	Lcd_Write_Char@a
  7137  16EF                     l3165:
  7138                           
  7139                           ;../LABORATORIO1.X/LCD.c: 87:     char temp, y;;../LABORATORIO1.X/LCD.c: 88:     temp = 
      +                          a & 0x0F;
  7140  16EF  0824               	movf	Lcd_Write_Char@a,w
  7141  16F0  390F               	andlw	15
  7142  16F1  00A1               	movwf	??_Lcd_Write_Char
  7143  16F2  0821               	movf	??_Lcd_Write_Char,w
  7144  16F3  00A2               	movwf	Lcd_Write_Char@temp
  7145                           
  7146                           ;../LABORATORIO1.X/LCD.c: 89:     y = a & 0xF0;
  7147  16F4  0824               	movf	Lcd_Write_Char@a,w
  7148  16F5  39F0               	andlw	240
  7149  16F6  00A1               	movwf	??_Lcd_Write_Char
  7150  16F7  0821               	movf	??_Lcd_Write_Char,w
  7151  16F8  00A3               	movwf	Lcd_Write_Char@y
  7152  16F9                     l3167:
  7153                           
  7154                           ;../LABORATORIO1.X/LCD.c: 90:     PORTDbits.RD2 = 1;
  7155  16F9  1508               	bsf	8,2	;volatile
  7156  16FA                     l3169:
  7157                           
  7158                           ;../LABORATORIO1.X/LCD.c: 91:     Lcd_Port(y >> 4);
  7159  16FA  0823               	movf	Lcd_Write_Char@y,w
  7160  16FB  00A1               	movwf	??_Lcd_Write_Char
  7161  16FC  3004               	movlw	4
  7162  16FD                     u3785:
  7163  16FD  1003               	clrc
  7164  16FE  0CA1               	rrf	??_Lcd_Write_Char,f
  7165  16FF  3EFF               	addlw	-1
  7166  1700  1D03               	skipz
  7167  1701  2EFD               	goto	u3785
  7168  1702  0821               	movf	??_Lcd_Write_Char,w
  7169  1703  160A  118A  2634  160A  118A  	fcall	_Lcd_Port
  7170  1708                     l3171:
  7171                           
  7172                           ;../LABORATORIO1.X/LCD.c: 92:     RD3 = 1;
  7173  1708  1283               	bcf	3,5	;RP0=0, select bank0
  7174  1709  1303               	bcf	3,6	;RP1=0, select bank0
  7175  170A  1588               	bsf	8,3	;volatile
  7176  170B                     l3173:
  7177                           
  7178                           ;../LABORATORIO1.X/LCD.c: 93:     _delay((unsigned long)((40)*(8000000/4000000.0)));
  7179  170B  3019               	movlw	25
  7180  170C  1283               	bcf	3,5	;RP0=0, select bank0
  7181  170D  1303               	bcf	3,6	;RP1=0, select bank0
  7182  170E  00A1               	movwf	??_Lcd_Write_Char
  7183  170F                     u3937:
  7184  170F  0BA1               	decfsz	??_Lcd_Write_Char,f
  7185  1710  2F0F               	goto	u3937
  7186  1711  2F12               	nop2
  7187  1712                     l3175:
  7188                           
  7189                           ;../LABORATORIO1.X/LCD.c: 94:     RD3 = 0;
  7190  1712  1283               	bcf	3,5	;RP0=0, select bank0
  7191  1713  1303               	bcf	3,6	;RP1=0, select bank0
  7192  1714  1188               	bcf	8,3	;volatile
  7193  1715                     l3177:
  7194                           
  7195                           ;../LABORATORIO1.X/LCD.c: 95:     Lcd_Port(temp);
  7196  1715  0822               	movf	Lcd_Write_Char@temp,w
  7197  1716  160A  118A  2634  160A  118A  	fcall	_Lcd_Port
  7198  171B                     l3179:
  7199                           
  7200                           ;../LABORATORIO1.X/LCD.c: 96:     RD3 = 1;
  7201  171B  1283               	bcf	3,5	;RP0=0, select bank0
  7202  171C  1303               	bcf	3,6	;RP1=0, select bank0
  7203  171D  1588               	bsf	8,3	;volatile
  7204  171E                     l3181:
  7205                           
  7206                           ;../LABORATORIO1.X/LCD.c: 97:     _delay((unsigned long)((40)*(8000000/4000000.0)));
  7207  171E  3019               	movlw	25
  7208  171F  1283               	bcf	3,5	;RP0=0, select bank0
  7209  1720  1303               	bcf	3,6	;RP1=0, select bank0
  7210  1721  00A1               	movwf	??_Lcd_Write_Char
  7211  1722                     u3947:
  7212  1722  0BA1               	decfsz	??_Lcd_Write_Char,f
  7213  1723  2F22               	goto	u3947
  7214  1724  2F25               	nop2
  7215  1725                     l3183:
  7216                           
  7217                           ;../LABORATORIO1.X/LCD.c: 98:     RD3 = 0;
  7218  1725  1283               	bcf	3,5	;RP0=0, select bank0
  7219  1726  1303               	bcf	3,6	;RP1=0, select bank0
  7220  1727  1188               	bcf	8,3	;volatile
  7221  1728                     l43:
  7222  1728  0008               	return
  7223  1729                     __end_of_Lcd_Write_Char:
  7224                           
  7225                           	psect	text20
  7226  0936                     __ptext20:	
  7227 ;; *************** function _Lcd_Set_Cursor *****************
  7228 ;; Defined at:
  7229 ;;		line 50 in file "../LABORATORIO1.X/LCD.c"
  7230 ;; Parameters:    Size  Location     Type
  7231 ;;  a               1    wreg     unsigned char 
  7232 ;;  b               1    4[BANK0 ] unsigned char 
  7233 ;; Auto vars:     Size  Location     Type
  7234 ;;  a               1    7[BANK0 ] unsigned char 
  7235 ;;  temp            1   10[BANK0 ] unsigned char 
  7236 ;;  y               1    9[BANK0 ] unsigned char 
  7237 ;;  z               1    8[BANK0 ] unsigned char 
  7238 ;; Return value:  Size  Location     Type
  7239 ;;                  1    wreg      void 
  7240 ;; Registers used:
  7241 ;;		wreg, status,2, status,0, pclath, cstack
  7242 ;; Tracked objects:
  7243 ;;		On entry : 0/0
  7244 ;;		On exit  : 0/0
  7245 ;;		Unchanged: 0/0
  7246 ;; Data sizes:     COMMON   BANK0   BANK1   BANK3   BANK2
  7247 ;;      Params:         0       1       0       0       0
  7248 ;;      Locals:         0       4       0       0       0
  7249 ;;      Temps:          0       2       0       0       0
  7250 ;;      Totals:         0       7       0       0       0
  7251 ;;Total ram usage:        7 bytes
  7252 ;; Hardware stack levels used: 1
  7253 ;; Hardware stack levels required when called: 4
  7254 ;; This function calls:
  7255 ;;		_Lcd_Cmd
  7256 ;; This function is called by:
  7257 ;;		_main
  7258 ;; This function uses a non-reentrant model
  7259 ;;
  7260                           
  7261  0936                     _Lcd_Set_Cursor:	
  7262                           ;psect for function _Lcd_Set_Cursor
  7263                           
  7264                           
  7265                           ;incstack = 0
  7266                           ; Regs used in _Lcd_Set_Cursor: [wreg+status,2+status,0+pclath+cstack]
  7267                           ;Lcd_Set_Cursor@a stored from wreg
  7268  0936  1283               	bcf	3,5	;RP0=0, select bank0
  7269  0937  1303               	bcf	3,6	;RP1=0, select bank0
  7270  0938  00A7               	movwf	Lcd_Set_Cursor@a
  7271  0939                     l3225:
  7272                           
  7273                           ;../LABORATORIO1.X/LCD.c: 50: void Lcd_Set_Cursor(char a, char b);../LABORATORIO1.X/LCD.
      +                          c: 51: {;../LABORATORIO1.X/LCD.c: 52:     char temp, z, y;;../LABORATORIO1.X/LCD.c: 53: 
      +                              if (a == 1) {
  7274  0939  0327               	decf	Lcd_Set_Cursor@a,w
  7275  093A  1D03               	btfss	3,2
  7276  093B  293D               	goto	u3791
  7277  093C  293E               	goto	u3790
  7278  093D                     u3791:
  7279  093D  2963               	goto	l3235
  7280  093E                     u3790:
  7281  093E                     l3227:
  7282                           
  7283                           ;../LABORATORIO1.X/LCD.c: 54:         temp = 0x80 + b - 1;
  7284  093E  0824               	movf	Lcd_Set_Cursor@b,w
  7285  093F  3E7F               	addlw	127
  7286  0940  00A5               	movwf	??_Lcd_Set_Cursor
  7287  0941  0825               	movf	??_Lcd_Set_Cursor,w
  7288  0942  00AA               	movwf	Lcd_Set_Cursor@temp
  7289                           
  7290                           ;../LABORATORIO1.X/LCD.c: 55:         z = temp >> 4;
  7291  0943  082A               	movf	Lcd_Set_Cursor@temp,w
  7292  0944  00A5               	movwf	??_Lcd_Set_Cursor
  7293  0945  3004               	movlw	4
  7294  0946                     u3805:
  7295  0946  1003               	clrc
  7296  0947  0CA5               	rrf	??_Lcd_Set_Cursor,f
  7297  0948  3EFF               	addlw	-1
  7298  0949  1D03               	skipz
  7299  094A  2946               	goto	u3805
  7300  094B  0825               	movf	??_Lcd_Set_Cursor,w
  7301  094C  00A6               	movwf	??_Lcd_Set_Cursor+1
  7302  094D  0826               	movf	??_Lcd_Set_Cursor+1,w
  7303  094E  00A8               	movwf	Lcd_Set_Cursor@z
  7304  094F                     l3229:
  7305                           
  7306                           ;../LABORATORIO1.X/LCD.c: 56:         y = temp & 0x0F;
  7307  094F  082A               	movf	Lcd_Set_Cursor@temp,w
  7308  0950  390F               	andlw	15
  7309  0951  00A5               	movwf	??_Lcd_Set_Cursor
  7310  0952  0825               	movf	??_Lcd_Set_Cursor,w
  7311  0953  00A9               	movwf	Lcd_Set_Cursor@y
  7312  0954                     l3231:
  7313                           
  7314                           ;../LABORATORIO1.X/LCD.c: 57:         Lcd_Cmd(z);
  7315  0954  0828               	movf	Lcd_Set_Cursor@z,w
  7316  0955  120A  158A  207D  120A  158A  	fcall	_Lcd_Cmd
  7317  095A                     l3233:
  7318                           
  7319                           ;../LABORATORIO1.X/LCD.c: 58:         Lcd_Cmd(y);
  7320  095A  1283               	bcf	3,5	;RP0=0, select bank0
  7321  095B  1303               	bcf	3,6	;RP1=0, select bank0
  7322  095C  0829               	movf	Lcd_Set_Cursor@y,w
  7323  095D  120A  158A  207D  120A  158A  	fcall	_Lcd_Cmd
  7324                           
  7325                           ;../LABORATORIO1.X/LCD.c: 59:     } else if (a == 2) {
  7326  0962  298D               	goto	l37
  7327  0963                     l3235:
  7328  0963  3002               	movlw	2
  7329  0964  0627               	xorwf	Lcd_Set_Cursor@a,w
  7330  0965  1D03               	btfss	3,2
  7331  0966  2968               	goto	u3811
  7332  0967  2969               	goto	u3810
  7333  0968                     u3811:
  7334  0968  298D               	goto	l37
  7335  0969                     u3810:
  7336  0969                     l3237:
  7337                           
  7338                           ;../LABORATORIO1.X/LCD.c: 60:         temp = 0xC0 + b - 1;
  7339  0969  0824               	movf	Lcd_Set_Cursor@b,w
  7340  096A  3EBF               	addlw	191
  7341  096B  00A5               	movwf	??_Lcd_Set_Cursor
  7342  096C  0825               	movf	??_Lcd_Set_Cursor,w
  7343  096D  00AA               	movwf	Lcd_Set_Cursor@temp
  7344                           
  7345                           ;../LABORATORIO1.X/LCD.c: 61:         z = temp >> 4;
  7346  096E  082A               	movf	Lcd_Set_Cursor@temp,w
  7347  096F  00A5               	movwf	??_Lcd_Set_Cursor
  7348  0970  3004               	movlw	4
  7349  0971                     u3825:
  7350  0971  1003               	clrc
  7351  0972  0CA5               	rrf	??_Lcd_Set_Cursor,f
  7352  0973  3EFF               	addlw	-1
  7353  0974  1D03               	skipz
  7354  0975  2971               	goto	u3825
  7355  0976  0825               	movf	??_Lcd_Set_Cursor,w
  7356  0977  00A6               	movwf	??_Lcd_Set_Cursor+1
  7357  0978  0826               	movf	??_Lcd_Set_Cursor+1,w
  7358  0979  00A8               	movwf	Lcd_Set_Cursor@z
  7359  097A                     l3239:
  7360                           
  7361                           ;../LABORATORIO1.X/LCD.c: 62:         y = temp & 0x0F;
  7362  097A  082A               	movf	Lcd_Set_Cursor@temp,w
  7363  097B  390F               	andlw	15
  7364  097C  00A5               	movwf	??_Lcd_Set_Cursor
  7365  097D  0825               	movf	??_Lcd_Set_Cursor,w
  7366  097E  00A9               	movwf	Lcd_Set_Cursor@y
  7367  097F                     l3241:
  7368                           
  7369                           ;../LABORATORIO1.X/LCD.c: 63:         Lcd_Cmd(z);
  7370  097F  0828               	movf	Lcd_Set_Cursor@z,w
  7371  0980  120A  158A  207D  120A  158A  	fcall	_Lcd_Cmd
  7372  0985                     l3243:
  7373                           
  7374                           ;../LABORATORIO1.X/LCD.c: 64:         Lcd_Cmd(y);
  7375  0985  1283               	bcf	3,5	;RP0=0, select bank0
  7376  0986  1303               	bcf	3,6	;RP1=0, select bank0
  7377  0987  0829               	movf	Lcd_Set_Cursor@y,w
  7378  0988  120A  158A  207D  120A  158A  	fcall	_Lcd_Cmd
  7379  098D                     l37:
  7380  098D  0008               	return
  7381  098E                     __end_of_Lcd_Set_Cursor:
  7382                           
  7383                           	psect	text21
  7384  098E                     __ptext21:	
  7385 ;; *************** function _Lcd_Init *****************
  7386 ;; Defined at:
  7387 ;;		line 68 in file "../LABORATORIO1.X/LCD.c"
  7388 ;; Parameters:    Size  Location     Type
  7389 ;;		None
  7390 ;; Auto vars:     Size  Location     Type
  7391 ;;		None
  7392 ;; Return value:  Size  Location     Type
  7393 ;;                  1    wreg      void 
  7394 ;; Registers used:
  7395 ;;		wreg, status,2, status,0, pclath, cstack
  7396 ;; Tracked objects:
  7397 ;;		On entry : 0/0
  7398 ;;		On exit  : 0/0
  7399 ;;		Unchanged: 0/0
  7400 ;; Data sizes:     COMMON   BANK0   BANK1   BANK3   BANK2
  7401 ;;      Params:         0       0       0       0       0
  7402 ;;      Locals:         0       0       0       0       0
  7403 ;;      Temps:          0       2       0       0       0
  7404 ;;      Totals:         0       2       0       0       0
  7405 ;;Total ram usage:        2 bytes
  7406 ;; Hardware stack levels used: 1
  7407 ;; Hardware stack levels required when called: 4
  7408 ;; This function calls:
  7409 ;;		_Lcd_Cmd
  7410 ;;		_Lcd_Port
  7411 ;; This function is called by:
  7412 ;;		_main
  7413 ;; This function uses a non-reentrant model
  7414 ;;
  7415                           
  7416  098E                     _Lcd_Init:	
  7417                           ;psect for function _Lcd_Init
  7418                           
  7419  098E                     l3245:	
  7420                           ;incstack = 0
  7421                           ; Regs used in _Lcd_Init: [wreg+status,2+status,0+pclath+cstack]
  7422                           
  7423                           
  7424                           ;../LABORATORIO1.X/LCD.c: 69:     Lcd_Port(0x00);
  7425  098E  3000               	movlw	0
  7426  098F  160A  118A  2634  120A  158A  	fcall	_Lcd_Port
  7427  0994                     l3247:
  7428                           
  7429                           ;../LABORATORIO1.X/LCD.c: 70:     _delay((unsigned long)((20)*(8000000/4000.0)));
  7430  0994  3034               	movlw	52
  7431  0995  1283               	bcf	3,5	;RP0=0, select bank0
  7432  0996  1303               	bcf	3,6	;RP1=0, select bank0
  7433  0997  00A5               	movwf	??_Lcd_Init+1
  7434  0998  30F1               	movlw	241
  7435  0999  00A4               	movwf	??_Lcd_Init
  7436  099A                     u3957:
  7437  099A  0BA4               	decfsz	??_Lcd_Init,f
  7438  099B  299A               	goto	u3957
  7439  099C  0BA5               	decfsz	??_Lcd_Init+1,f
  7440  099D  299A               	goto	u3957
  7441  099E                     l3249:
  7442                           
  7443                           ;../LABORATORIO1.X/LCD.c: 71:     Lcd_Cmd(0x03);
  7444  099E  3003               	movlw	3
  7445  099F  120A  158A  207D  120A  158A  	fcall	_Lcd_Cmd
  7446                           
  7447                           ;../LABORATORIO1.X/LCD.c: 72:     _delay((unsigned long)((5)*(8000000/4000.0)));
  7448  09A4  300D               	movlw	13
  7449  09A5  1283               	bcf	3,5	;RP0=0, select bank0
  7450  09A6  1303               	bcf	3,6	;RP1=0, select bank0
  7451  09A7  00A5               	movwf	??_Lcd_Init+1
  7452  09A8  30FB               	movlw	251
  7453  09A9  00A4               	movwf	??_Lcd_Init
  7454  09AA                     u3967:
  7455  09AA  0BA4               	decfsz	??_Lcd_Init,f
  7456  09AB  29AA               	goto	u3967
  7457  09AC  0BA5               	decfsz	??_Lcd_Init+1,f
  7458  09AD  29AA               	goto	u3967
  7459  09AE                     l3251:
  7460                           
  7461                           ;../LABORATORIO1.X/LCD.c: 73:     Lcd_Cmd(0x03);
  7462  09AE  3003               	movlw	3
  7463  09AF  120A  158A  207D  120A  158A  	fcall	_Lcd_Cmd
  7464  09B4                     l3253:
  7465                           
  7466                           ;../LABORATORIO1.X/LCD.c: 74:     _delay((unsigned long)((11)*(8000000/4000000.0)));
  7467  09B4  3006               	movlw	6
  7468  09B5  1283               	bcf	3,5	;RP0=0, select bank0
  7469  09B6  1303               	bcf	3,6	;RP1=0, select bank0
  7470  09B7  00A4               	movwf	??_Lcd_Init
  7471  09B8                     u3977:
  7472  09B8  0BA4               	decfsz	??_Lcd_Init,f
  7473  09B9  29B8               	goto	u3977
  7474  09BA  0000               	nop
  7475                           
  7476                           ;../LABORATORIO1.X/LCD.c: 75:     Lcd_Cmd(0x03);
  7477  09BB  3003               	movlw	3
  7478  09BC  120A  158A  207D  120A  158A  	fcall	_Lcd_Cmd
  7479                           
  7480                           ;../LABORATORIO1.X/LCD.c: 77:     Lcd_Cmd(0x02);
  7481  09C1  3002               	movlw	2
  7482  09C2  120A  158A  207D  120A  158A  	fcall	_Lcd_Cmd
  7483                           
  7484                           ;../LABORATORIO1.X/LCD.c: 78:     Lcd_Cmd(0x02);
  7485  09C7  3002               	movlw	2
  7486  09C8  120A  158A  207D  120A  158A  	fcall	_Lcd_Cmd
  7487                           
  7488                           ;../LABORATORIO1.X/LCD.c: 79:     Lcd_Cmd(0x08);
  7489  09CD  3008               	movlw	8
  7490  09CE  120A  158A  207D  120A  158A  	fcall	_Lcd_Cmd
  7491                           
  7492                           ;../LABORATORIO1.X/LCD.c: 80:     Lcd_Cmd(0x00);
  7493  09D3  3000               	movlw	0
  7494  09D4  120A  158A  207D  120A  158A  	fcall	_Lcd_Cmd
  7495                           
  7496                           ;../LABORATORIO1.X/LCD.c: 81:     Lcd_Cmd(0x0C);
  7497  09D9  300C               	movlw	12
  7498  09DA  120A  158A  207D  120A  158A  	fcall	_Lcd_Cmd
  7499                           
  7500                           ;../LABORATORIO1.X/LCD.c: 82:     Lcd_Cmd(0x00);
  7501  09DF  3000               	movlw	0
  7502  09E0  120A  158A  207D  120A  158A  	fcall	_Lcd_Cmd
  7503                           
  7504                           ;../LABORATORIO1.X/LCD.c: 83:     Lcd_Cmd(0x06);
  7505  09E5  3006               	movlw	6
  7506  09E6  120A  158A  207D  120A  158A  	fcall	_Lcd_Cmd
  7507  09EB                     l40:
  7508  09EB  0008               	return
  7509  09EC                     __end_of_Lcd_Init:
  7510                           
  7511                           	psect	text22
  7512  1610                     __ptext22:	
  7513 ;; *************** function _Lcd_Clear *****************
  7514 ;; Defined at:
  7515 ;;		line 45 in file "../LABORATORIO1.X/LCD.c"
  7516 ;; Parameters:    Size  Location     Type
  7517 ;;		None
  7518 ;; Auto vars:     Size  Location     Type
  7519 ;;		None
  7520 ;; Return value:  Size  Location     Type
  7521 ;;                  1    wreg      void 
  7522 ;; Registers used:
  7523 ;;		wreg, status,2, status,0, pclath, cstack
  7524 ;; Tracked objects:
  7525 ;;		On entry : 0/0
  7526 ;;		On exit  : 0/0
  7527 ;;		Unchanged: 0/0
  7528 ;; Data sizes:     COMMON   BANK0   BANK1   BANK3   BANK2
  7529 ;;      Params:         0       0       0       0       0
  7530 ;;      Locals:         0       0       0       0       0
  7531 ;;      Temps:          0       0       0       0       0
  7532 ;;      Totals:         0       0       0       0       0
  7533 ;;Total ram usage:        0 bytes
  7534 ;; Hardware stack levels used: 1
  7535 ;; Hardware stack levels required when called: 4
  7536 ;; This function calls:
  7537 ;;		_Lcd_Cmd
  7538 ;; This function is called by:
  7539 ;;		_main
  7540 ;; This function uses a non-reentrant model
  7541 ;;
  7542                           
  7543  1610                     _Lcd_Clear:	
  7544                           ;psect for function _Lcd_Clear
  7545                           
  7546  1610                     l3223:	
  7547                           ;incstack = 0
  7548                           ; Regs used in _Lcd_Clear: [wreg+status,2+status,0+pclath+cstack]
  7549                           
  7550                           
  7551                           ;../LABORATORIO1.X/LCD.c: 46:     Lcd_Cmd(0);
  7552  1610  3000               	movlw	0
  7553  1611  120A  158A  207D  160A  118A  	fcall	_Lcd_Cmd
  7554                           
  7555                           ;../LABORATORIO1.X/LCD.c: 47:     Lcd_Cmd(1);
  7556  1616  3001               	movlw	1
  7557  1617  120A  158A  207D  160A  118A  	fcall	_Lcd_Cmd
  7558  161C                     l31:
  7559  161C  0008               	return
  7560  161D                     __end_of_Lcd_Clear:
  7561                           
  7562                           	psect	text23
  7563  087D                     __ptext23:	
  7564 ;; *************** function _Lcd_Cmd *****************
  7565 ;; Defined at:
  7566 ;;		line 36 in file "../LABORATORIO1.X/LCD.c"
  7567 ;; Parameters:    Size  Location     Type
  7568 ;;  a               1    wreg     unsigned char 
  7569 ;; Auto vars:     Size  Location     Type
  7570 ;;  a               1    3[BANK0 ] unsigned char 
  7571 ;; Return value:  Size  Location     Type
  7572 ;;                  1    wreg      void 
  7573 ;; Registers used:
  7574 ;;		wreg, status,2, status,0, pclath, cstack
  7575 ;; Tracked objects:
  7576 ;;		On entry : 0/0
  7577 ;;		On exit  : 0/0
  7578 ;;		Unchanged: 0/0
  7579 ;; Data sizes:     COMMON   BANK0   BANK1   BANK3   BANK2
  7580 ;;      Params:         0       0       0       0       0
  7581 ;;      Locals:         0       1       0       0       0
  7582 ;;      Temps:          0       2       0       0       0
  7583 ;;      Totals:         0       3       0       0       0
  7584 ;;Total ram usage:        3 bytes
  7585 ;; Hardware stack levels used: 1
  7586 ;; Hardware stack levels required when called: 3
  7587 ;; This function calls:
  7588 ;;		_Lcd_Port
  7589 ;; This function is called by:
  7590 ;;		_Lcd_Clear
  7591 ;;		_Lcd_Set_Cursor
  7592 ;;		_Lcd_Init
  7593 ;;		_Lcd_Shift_Right
  7594 ;;		_Lcd_Shift_Left
  7595 ;; This function uses a non-reentrant model
  7596 ;;
  7597                           
  7598  087D                     _Lcd_Cmd:	
  7599                           ;psect for function _Lcd_Cmd
  7600                           
  7601                           
  7602                           ;incstack = 0
  7603                           ; Regs used in _Lcd_Cmd: [wreg+status,2+status,0+pclath+cstack]
  7604                           ;Lcd_Cmd@a stored from wreg
  7605  087D  1283               	bcf	3,5	;RP0=0, select bank0
  7606  087E  1303               	bcf	3,6	;RP1=0, select bank0
  7607  087F  00A3               	movwf	Lcd_Cmd@a
  7608  0880                     l3155:
  7609                           
  7610                           ;../LABORATORIO1.X/LCD.c: 36: void Lcd_Cmd(char a);../LABORATORIO1.X/LCD.c: 37: {;../LAB
      +                          ORATORIO1.X/LCD.c: 38:     PORTDbits.RD2 = 0;
  7611  0880  1108               	bcf	8,2	;volatile
  7612  0881                     l3157:
  7613                           
  7614                           ;../LABORATORIO1.X/LCD.c: 39:     Lcd_Port(a);
  7615  0881  0823               	movf	Lcd_Cmd@a,w
  7616  0882  160A  118A  2634  120A  158A  	fcall	_Lcd_Port
  7617  0887                     l3159:
  7618                           
  7619                           ;../LABORATORIO1.X/LCD.c: 40:     RD3 = 1;
  7620  0887  1283               	bcf	3,5	;RP0=0, select bank0
  7621  0888  1303               	bcf	3,6	;RP1=0, select bank0
  7622  0889  1588               	bsf	8,3	;volatile
  7623  088A                     l3161:
  7624                           
  7625                           ;../LABORATORIO1.X/LCD.c: 41:     _delay((unsigned long)((4)*(8000000/4000.0)));
  7626  088A  300B               	movlw	11
  7627  088B  1283               	bcf	3,5	;RP0=0, select bank0
  7628  088C  1303               	bcf	3,6	;RP1=0, select bank0
  7629  088D  00A2               	movwf	??_Lcd_Cmd+1
  7630  088E  3061               	movlw	97
  7631  088F  00A1               	movwf	??_Lcd_Cmd
  7632  0890                     u3987:
  7633  0890  0BA1               	decfsz	??_Lcd_Cmd,f
  7634  0891  2890               	goto	u3987
  7635  0892  0BA2               	decfsz	??_Lcd_Cmd+1,f
  7636  0893  2890               	goto	u3987
  7637  0894  2895               	nop2
  7638  0895                     l3163:
  7639                           
  7640                           ;../LABORATORIO1.X/LCD.c: 42:     RD3 = 0;
  7641  0895  1283               	bcf	3,5	;RP0=0, select bank0
  7642  0896  1303               	bcf	3,6	;RP1=0, select bank0
  7643  0897  1188               	bcf	8,3	;volatile
  7644  0898                     l28:
  7645  0898  0008               	return
  7646  0899                     __end_of_Lcd_Cmd:
  7647                           
  7648                           	psect	text24
  7649  1634                     __ptext24:	
  7650 ;; *************** function _Lcd_Port *****************
  7651 ;; Defined at:
  7652 ;;		line 13 in file "../LABORATORIO1.X/LCD.c"
  7653 ;; Parameters:    Size  Location     Type
  7654 ;;  a               1    wreg     unsigned char 
  7655 ;; Auto vars:     Size  Location     Type
  7656 ;;  a               1    0[BANK0 ] unsigned char 
  7657 ;; Return value:  Size  Location     Type
  7658 ;;                  1    wreg      void 
  7659 ;; Registers used:
  7660 ;;		wreg
  7661 ;; Tracked objects:
  7662 ;;		On entry : 0/0
  7663 ;;		On exit  : 0/0
  7664 ;;		Unchanged: 0/0
  7665 ;; Data sizes:     COMMON   BANK0   BANK1   BANK3   BANK2
  7666 ;;      Params:         0       0       0       0       0
  7667 ;;      Locals:         0       1       0       0       0
  7668 ;;      Temps:          0       0       0       0       0
  7669 ;;      Totals:         0       1       0       0       0
  7670 ;;Total ram usage:        1 bytes
  7671 ;; Hardware stack levels used: 1
  7672 ;; Hardware stack levels required when called: 2
  7673 ;; This function calls:
  7674 ;;		Nothing
  7675 ;; This function is called by:
  7676 ;;		_Lcd_Cmd
  7677 ;;		_Lcd_Init
  7678 ;;		_Lcd_Write_Char
  7679 ;; This function uses a non-reentrant model
  7680 ;;
  7681                           
  7682  1634                     _Lcd_Port:	
  7683                           ;psect for function _Lcd_Port
  7684                           
  7685                           
  7686                           ;incstack = 0
  7687                           ; Regs used in _Lcd_Port: [wreg]
  7688                           ;Lcd_Port@a stored from wreg
  7689  1634  1283               	bcf	3,5	;RP0=0, select bank0
  7690  1635  1303               	bcf	3,6	;RP1=0, select bank0
  7691  1636  00A0               	movwf	Lcd_Port@a
  7692  1637                     l3145:
  7693                           
  7694                           ;../LABORATORIO1.X/LCD.c: 13: void Lcd_Port(char a);../LABORATORIO1.X/LCD.c: 14: {;../LA
      +                          BORATORIO1.X/LCD.c: 15:     if (a & 1)
  7695  1637  1C20               	btfss	Lcd_Port@a,0
  7696  1638  2E3A               	goto	u3741
  7697  1639  2E3B               	goto	u3740
  7698  163A                     u3741:
  7699  163A  2E3D               	goto	l17
  7700  163B                     u3740:
  7701  163B                     l3147:
  7702                           
  7703                           ;../LABORATORIO1.X/LCD.c: 16:         RD4 = 1;
  7704  163B  1608               	bsf	8,4	;volatile
  7705  163C  2E3E               	goto	l18
  7706  163D                     l17:	
  7707                           ;../LABORATORIO1.X/LCD.c: 17:     else
  7708                           
  7709                           
  7710                           ;../LABORATORIO1.X/LCD.c: 18:         RD4 = 0;
  7711  163D  1208               	bcf	8,4	;volatile
  7712  163E                     l18:
  7713                           
  7714                           ;../LABORATORIO1.X/LCD.c: 20:     if (a & 2)
  7715  163E  1CA0               	btfss	Lcd_Port@a,1
  7716  163F  2E41               	goto	u3751
  7717  1640  2E42               	goto	u3750
  7718  1641                     u3751:
  7719  1641  2E44               	goto	l19
  7720  1642                     u3750:
  7721  1642                     l3149:
  7722                           
  7723                           ;../LABORATORIO1.X/LCD.c: 21:         RD5 = 1;
  7724  1642  1688               	bsf	8,5	;volatile
  7725  1643  2E45               	goto	l20
  7726  1644                     l19:	
  7727                           ;../LABORATORIO1.X/LCD.c: 22:     else
  7728                           
  7729                           
  7730                           ;../LABORATORIO1.X/LCD.c: 23:         RD5 = 0;
  7731  1644  1288               	bcf	8,5	;volatile
  7732  1645                     l20:
  7733                           
  7734                           ;../LABORATORIO1.X/LCD.c: 25:     if (a & 4)
  7735  1645  1D20               	btfss	Lcd_Port@a,2
  7736  1646  2E48               	goto	u3761
  7737  1647  2E49               	goto	u3760
  7738  1648                     u3761:
  7739  1648  2E4B               	goto	l21
  7740  1649                     u3760:
  7741  1649                     l3151:
  7742                           
  7743                           ;../LABORATORIO1.X/LCD.c: 26:         RD6 = 1;
  7744  1649  1708               	bsf	8,6	;volatile
  7745  164A  2E4C               	goto	l22
  7746  164B                     l21:	
  7747                           ;../LABORATORIO1.X/LCD.c: 27:     else
  7748                           
  7749                           
  7750                           ;../LABORATORIO1.X/LCD.c: 28:         RD6 = 0;
  7751  164B  1308               	bcf	8,6	;volatile
  7752  164C                     l22:
  7753                           
  7754                           ;../LABORATORIO1.X/LCD.c: 30:     if (a & 8)
  7755  164C  1DA0               	btfss	Lcd_Port@a,3
  7756  164D  2E4F               	goto	u3771
  7757  164E  2E50               	goto	u3770
  7758  164F                     u3771:
  7759  164F  2E52               	goto	l23
  7760  1650                     u3770:
  7761  1650                     l3153:
  7762                           
  7763                           ;../LABORATORIO1.X/LCD.c: 31:         RD7 = 1;
  7764  1650  1788               	bsf	8,7	;volatile
  7765  1651  2E53               	goto	l25
  7766  1652                     l23:	
  7767                           ;../LABORATORIO1.X/LCD.c: 32:     else
  7768                           
  7769                           
  7770                           ;../LABORATORIO1.X/LCD.c: 33:         RD7 = 0;
  7771  1652  1388               	bcf	8,7	;volatile
  7772  1653                     l25:
  7773  1653  0008               	return
  7774  1654                     __end_of_Lcd_Port:
  7775                           
  7776                           	psect	text25
  7777  08E5                     __ptext25:	
  7778 ;; *************** function _isr *****************
  7779 ;; Defined at:
  7780 ;;		line 74 in file "main.c"
  7781 ;; Parameters:    Size  Location     Type
  7782 ;;		None
  7783 ;; Auto vars:     Size  Location     Type
  7784 ;;		None
  7785 ;; Return value:  Size  Location     Type
  7786 ;;                  1    wreg      void 
  7787 ;; Registers used:
  7788 ;;		wreg, status,2, status,0, pclath, cstack
  7789 ;; Tracked objects:
  7790 ;;		On entry : 0/0
  7791 ;;		On exit  : 0/0
  7792 ;;		Unchanged: 0/0
  7793 ;; Data sizes:     COMMON   BANK0   BANK1   BANK3   BANK2
  7794 ;;      Params:         0       0       0       0       0
  7795 ;;      Locals:         0       0       0       0       0
  7796 ;;      Temps:          3       0       0       0       0
  7797 ;;      Totals:         3       0       0       0       0
  7798 ;;Total ram usage:        3 bytes
  7799 ;; Hardware stack levels used: 1
  7800 ;; Hardware stack levels required when called: 1
  7801 ;; This function calls:
  7802 ;;		_adc_read
  7803 ;;		i1_tmr0_reload
  7804 ;; This function is called by:
  7805 ;;		Interrupt level 1
  7806 ;; This function uses a non-reentrant model
  7807 ;;
  7808                           
  7809  08E5                     _isr:	
  7810                           ;psect for function _isr
  7811                           
  7812  08E5                     i1l2943:
  7813                           
  7814                           ;main.c: 75:     if(INTCONbits.T0IF){
  7815  08E5  1D0B               	btfss	11,2	;volatile
  7816  08E6  28E8               	goto	u363_21
  7817  08E7  28E9               	goto	u363_20
  7818  08E8                     u363_21:
  7819  08E8  2907               	goto	i1l2959
  7820  08E9                     u363_20:
  7821  08E9                     i1l2945:
  7822                           
  7823                           ;main.c: 76:         contador++;
  7824  08E9  3001               	movlw	1
  7825  08EA  00F4               	movwf	??_isr
  7826  08EB  0874               	movf	??_isr,w
  7827  08EC  07FA               	addwf	_contador,f
  7828                           
  7829                           ;main.c: 77:         if(contador == 100){
  7830  08ED  3064               	movlw	100
  7831  08EE  067A               	xorwf	_contador,w
  7832  08EF  1D03               	btfss	3,2
  7833  08F0  28F2               	goto	u364_21
  7834  08F1  28F3               	goto	u364_20
  7835  08F2                     u364_21:
  7836  08F2  2902               	goto	i1l2957
  7837  08F3                     u364_20:
  7838  08F3                     i1l2947:
  7839                           
  7840                           ;main.c: 78:             if(bandera == 1){
  7841  08F3  0378               	decf	_bandera,w
  7842  08F4  1D03               	btfss	3,2
  7843  08F5  28F7               	goto	u365_21
  7844  08F6  28F8               	goto	u365_20
  7845  08F7                     u365_21:
  7846  08F7  28FA               	goto	i1l2951
  7847  08F8                     u365_20:
  7848  08F8                     i1l2949:
  7849                           
  7850                           ;main.c: 79:                 bandera = 0;
  7851  08F8  01F8               	clrf	_bandera
  7852                           
  7853                           ;main.c: 80:             }
  7854  08F9  2901               	goto	i1l2955
  7855  08FA                     i1l2951:
  7856  08FA  0878               	movf	_bandera,w
  7857  08FB  1D03               	btfss	3,2
  7858  08FC  28FE               	goto	u366_21
  7859  08FD  28FF               	goto	u366_20
  7860  08FE                     u366_21:
  7861  08FE  2901               	goto	i1l2955
  7862  08FF                     u366_20:
  7863  08FF                     i1l2953:
  7864                           
  7865                           ;main.c: 82:                 bandera = 1;
  7866  08FF  01F8               	clrf	_bandera
  7867  0900  0AF8               	incf	_bandera,f
  7868  0901                     i1l2955:
  7869                           
  7870                           ;main.c: 84:             contador = 0;
  7871  0901  01FA               	clrf	_contador
  7872  0902                     i1l2957:
  7873                           
  7874                           ;main.c: 86:         tmr0_reload();
  7875  0902  160A  118A  25F9  120A  158A  	fcall	i1_tmr0_reload
  7876  0907                     i1l2959:
  7877                           
  7878                           ;main.c: 88:     if(PIR1bits.ADIF){
  7879  0907  1283               	bcf	3,5	;RP0=0, select bank0
  7880  0908  1303               	bcf	3,6	;RP1=0, select bank0
  7881  0909  1F0C               	btfss	12,6	;volatile
  7882  090A  290C               	goto	u367_21
  7883  090B  290D               	goto	u367_20
  7884  090C                     u367_21:
  7885  090C  292F               	goto	i1l241
  7886  090D                     u367_20:
  7887  090D                     i1l2961:
  7888                           
  7889                           ;main.c: 89:         if(canal_ADC == 0){
  7890  090D  0879               	movf	_canal_ADC,w
  7891  090E  1D03               	btfss	3,2
  7892  090F  2911               	goto	u368_21
  7893  0910  2912               	goto	u368_20
  7894  0911                     u368_21:
  7895  0911  291E               	goto	i1l2965
  7896  0912                     u368_20:
  7897  0912                     i1l2963:
  7898                           
  7899                           ;main.c: 90:             VAL_POT_0 = adc_read();
  7900  0912  160A  118A  2605  120A  158A  	fcall	_adc_read
  7901  0917  0870               	movf	?_adc_read,w
  7902  0918  00F4               	movwf	??_isr
  7903  0919  0874               	movf	??_isr,w
  7904  091A  1683               	bsf	3,5	;RP0=1, select bank1
  7905  091B  1303               	bcf	3,6	;RP1=0, select bank1
  7906  091C  00C6               	movwf	_VAL_POT_0^(0+128)
  7907                           
  7908                           ;main.c: 91:         }
  7909  091D  292F               	goto	i1l241
  7910  091E                     i1l2965:
  7911  091E  0379               	decf	_canal_ADC,w
  7912  091F  1D03               	btfss	3,2
  7913  0920  2922               	goto	u369_21
  7914  0921  2923               	goto	u369_20
  7915  0922                     u369_21:
  7916  0922  292F               	goto	i1l237
  7917  0923                     u369_20:
  7918  0923                     i1l2967:
  7919                           
  7920                           ;main.c: 93:             VAL_POT_1 = adc_read();
  7921  0923  160A  118A  2605  120A  158A  	fcall	_adc_read
  7922  0928  0870               	movf	?_adc_read,w
  7923  0929  00F4               	movwf	??_isr
  7924  092A  0874               	movf	??_isr,w
  7925  092B  1683               	bsf	3,5	;RP0=1, select bank1
  7926  092C  1303               	bcf	3,6	;RP1=0, select bank1
  7927  092D  00C5               	movwf	_VAL_POT_1^(0+128)
  7928  092E  292F               	goto	i1l241
  7929  092F                     i1l237:	
  7930                           ;main.c: 95:     }
  7931                           
  7932  092F                     i1l241:
  7933  092F  0876               	movf	??_isr+2,w
  7934  0930  008A               	movwf	10
  7935  0931  0E75               	swapf	??_isr+1,w
  7936  0932  0083               	movwf	3
  7937  0933  0EFE               	swapf	btemp,f
  7938  0934  0E7E               	swapf	btemp,w
  7939  0935  0009               	retfie
  7940  0936                     __end_of_isr:
  7941                           
  7942                           	psect	intentry
  7943  0004                     __pintentry:	
  7944                           ;incstack = 0
  7945                           ; Regs used in _isr: [wreg+status,2+status,0+pclath+cstack]
  7946                           
  7947  0004                     interrupt_function:
  7948  007E                     saved_w	set	btemp
  7949  0004  00FE               	movwf	btemp
  7950  0005  0E03               	swapf	3,w
  7951  0006  00F5               	movwf	??_isr+1
  7952  0007  080A               	movf	10,w
  7953  0008  00F6               	movwf	??_isr+2
  7954  0009  120A  158A  28E5   	ljmp	_isr
  7955                           
  7956                           	psect	text26
  7957  15F9                     __ptext26:	
  7958 ;; *************** function i1_tmr0_reload *****************
  7959 ;; Defined at:
  7960 ;;		line 40 in file "../LABORATORIO1.X/tmr0.c"
  7961 ;; Parameters:    Size  Location     Type
  7962 ;;		None
  7963 ;; Auto vars:     Size  Location     Type
  7964 ;;		None
  7965 ;; Return value:  Size  Location     Type
  7966 ;;                  1    wreg      void 
  7967 ;; Registers used:
  7968 ;;		wreg
  7969 ;; Tracked objects:
  7970 ;;		On entry : 0/0
  7971 ;;		On exit  : 0/0
  7972 ;;		Unchanged: 0/0
  7973 ;; Data sizes:     COMMON   BANK0   BANK1   BANK3   BANK2
  7974 ;;      Params:         0       0       0       0       0
  7975 ;;      Locals:         0       0       0       0       0
  7976 ;;      Temps:          0       0       0       0       0
  7977 ;;      Totals:         0       0       0       0       0
  7978 ;;Total ram usage:        0 bytes
  7979 ;; Hardware stack levels used: 1
  7980 ;; This function calls:
  7981 ;;		Nothing
  7982 ;; This function is called by:
  7983 ;;		_isr
  7984 ;; This function uses a non-reentrant model
  7985 ;;
  7986                           
  7987  15F9                     i1_tmr0_reload:	
  7988                           ;psect for function i1_tmr0_reload
  7989                           
  7990  15F9                     i1l2935:	
  7991                           ;incstack = 0
  7992                           ; Regs used in i1_tmr0_reload: [wreg]
  7993                           
  7994                           
  7995                           ;../LABORATORIO1.X/tmr0.c: 41:     TMR0 = 61;
  7996  15F9  303D               	movlw	61
  7997  15FA  1283               	bcf	3,5	;RP0=0, select bank0
  7998  15FB  1303               	bcf	3,6	;RP1=0, select bank0
  7999  15FC  0081               	movwf	1	;volatile
  8000  15FD                     i1l2937:
  8001                           
  8002                           ;../LABORATORIO1.X/tmr0.c: 42:     INTCONbits.T0IF = 0;
  8003  15FD  110B               	bcf	11,2	;volatile
  8004  15FE                     i1l157:
  8005  15FE  0008               	return
  8006  15FF                     __end_ofi1_tmr0_reload:
  8007                           
  8008                           	psect	text27
  8009  1605                     __ptext27:	
  8010 ;; *************** function _adc_read *****************
  8011 ;; Defined at:
  8012 ;;		line 47 in file "../LABORATORIO1.X/adc.c"
  8013 ;; Parameters:    Size  Location     Type
  8014 ;;		None
  8015 ;; Auto vars:     Size  Location     Type
  8016 ;;		None
  8017 ;; Return value:  Size  Location     Type
  8018 ;;                  2    0[COMMON] int 
  8019 ;; Registers used:
  8020 ;;		wreg
  8021 ;; Tracked objects:
  8022 ;;		On entry : 0/0
  8023 ;;		On exit  : 0/0
  8024 ;;		Unchanged: 0/0
  8025 ;; Data sizes:     COMMON   BANK0   BANK1   BANK3   BANK2
  8026 ;;      Params:         2       0       0       0       0
  8027 ;;      Locals:         0       0       0       0       0
  8028 ;;      Temps:          2       0       0       0       0
  8029 ;;      Totals:         4       0       0       0       0
  8030 ;;Total ram usage:        4 bytes
  8031 ;; Hardware stack levels used: 1
  8032 ;; This function calls:
  8033 ;;		Nothing
  8034 ;; This function is called by:
  8035 ;;		_isr
  8036 ;; This function uses a non-reentrant model
  8037 ;;
  8038                           
  8039  1605                     _adc_read:	
  8040                           ;psect for function _adc_read
  8041                           
  8042  1605                     i1l2827:	
  8043                           ;incstack = 0
  8044                           ; Regs used in _adc_read: [wreg]
  8045                           
  8046                           
  8047                           ;../LABORATORIO1.X/adc.c: 48:     PIR1bits.ADIF = 0;
  8048  1605  1283               	bcf	3,5	;RP0=0, select bank0
  8049  1606  1303               	bcf	3,6	;RP1=0, select bank0
  8050  1607  130C               	bcf	12,6	;volatile
  8051  1608                     i1l2829:
  8052                           
  8053                           ;../LABORATORIO1.X/adc.c: 49:     return (ADRESH);
  8054  1608  081E               	movf	30,w	;volatile
  8055  1609  00F2               	movwf	??_adc_read
  8056  160A  01F3               	clrf	??_adc_read+1
  8057  160B  0872               	movf	??_adc_read,w
  8058  160C  00F0               	movwf	?_adc_read
  8059  160D  0873               	movf	??_adc_read+1,w
  8060  160E  00F1               	movwf	?_adc_read+1
  8061  160F                     i1l86:
  8062  160F  0008               	return
  8063  1610                     __end_of_adc_read:
  8064  007E                     btemp	set	126	;btemp
  8065  007E                     wtemp0	set	126
  8066                           
  8067                           	psect	idloc
  8068                           
  8069                           ;Config register IDLOC0 @ 0x2000
  8070                           ;	unspecified, using default values
  8071  2000                     	org	8192
  8072  2000  3FFF               	dw	16383
  8073                           
  8074                           ;Config register IDLOC1 @ 0x2001
  8075                           ;	unspecified, using default values
  8076  2001                     	org	8193
  8077  2001  3FFF               	dw	16383
  8078                           
  8079                           ;Config register IDLOC2 @ 0x2002
  8080                           ;	unspecified, using default values
  8081  2002                     	org	8194
  8082  2002  3FFF               	dw	16383
  8083                           
  8084                           ;Config register IDLOC3 @ 0x2003
  8085                           ;	unspecified, using default values
  8086  2003                     	org	8195
  8087  2003  3FFF               	dw	16383
  8088                           
  8089                           	psect	config
  8090                           
  8091                           ;Config register CONFIG1 @ 0x2007
  8092                           ;	Oscillator Selection bits
  8093                           ;	FOSC = INTRC_NOCLKOUT, INTOSCIO oscillator: I/O function on RA6/OSC2/CLKOUT pin, I/O f
      +                          unction on RA7/OSC1/CLKIN
  8094                           ;	Watchdog Timer Enable bit
  8095                           ;	WDTE = OFF, WDT disabled and can be enabled by SWDTEN bit of the WDTCON register
  8096                           ;	Power-up Timer Enable bit
  8097                           ;	PWRTE = OFF, PWRT disabled
  8098                           ;	RE3/MCLR pin function select bit
  8099                           ;	MCLRE = OFF, RE3/MCLR pin function is digital input, MCLR internally tied to VDD
  8100                           ;	Code Protection bit
  8101                           ;	CP = OFF, Program memory code protection is disabled
  8102                           ;	Data Code Protection bit
  8103                           ;	CPD = OFF, Data memory code protection is disabled
  8104                           ;	Brown Out Reset Selection bits
  8105                           ;	BOREN = OFF, BOR disabled
  8106                           ;	Internal External Switchover bit
  8107                           ;	IESO = OFF, Internal/External Switchover mode is disabled
  8108                           ;	Fail-Safe Clock Monitor Enabled bit
  8109                           ;	FCMEN = OFF, Fail-Safe Clock Monitor is disabled
  8110                           ;	Low Voltage Programming Enable bit
  8111                           ;	LVP = OFF, RB3 pin has digital I/O, HV on MCLR must be used for programming
  8112                           ;	In-Circuit Debugger Mode bit
  8113                           ;	DEBUG = 0x1, unprogrammed default
  8114  2007                     	org	8199
  8115  2007  20D4               	dw	8404
  8116                           
  8117                           ;Config register CONFIG2 @ 0x2008
  8118                           ;	Brown-out Reset Selection bit
  8119                           ;	BOR4V = BOR40V, Brown-out Reset set to 4.0V
  8120                           ;	Flash Program Memory Self Write Enable bits
  8121                           ;	WRT = OFF, Write protection off
  8122  2008                     	org	8200
  8123  2008  3FFF               	dw	16383

Data Sizes:
    Strings     96
    Constant    10
    Data        0
    BSS         15
    Persistent  0
    Stack       0

Auto Spaces:
    Space          Size  Autos    Used
    COMMON           14      7      11
    BANK0            80     80      80
    BANK1            80     29      40
    BANK3            96      0       0
    BANK2            96      0       0

Pointer List with Targets:

    sprintf@f	PTR const unsigned char  size(1) Largest target is 19
		 -> STR_6(CODE[19]), STR_4(CODE[18]), 

    sprintf@sp	PTR unsigned char  size(1) Largest target is 1
		 -> s(BANK1[1]), 

    sprintf@ap	PTR void [1] size(1) Largest target is 2
		 -> ?_sprintf(BANK0[2]), 

    Lcd_Write_String@a	PTR unsigned char  size(2) Largest target is 19
		 -> STR_5(CODE[17]), s(BANK1[1]), STR_3(CODE[19]), STR_2(CODE[7]), 
		 -> STR_1(CODE[16]), 


Critical Paths under _main in COMMON

    None.

Critical Paths under _isr in COMMON

    _isr->_adc_read

Critical Paths under _main in BANK0

    _sprintf->___lwmod
    ___lwmod->___lwdiv
    _setup->_adc_init
    _map->___fltol
    ___fltol->___fladd
    ___flmul->___fldiv
    ___fldiv->___xxtofl
    ___fladd->___flmul
    _Lcd_Write_String->_Lcd_Write_Char
    _Lcd_Write_Char->_Lcd_Port
    _Lcd_Set_Cursor->_Lcd_Cmd
    _Lcd_Init->_Lcd_Cmd
    _Lcd_Clear->_Lcd_Cmd
    _Lcd_Cmd->_Lcd_Port

Critical Paths under _isr in BANK0

    None.

Critical Paths under _main in BANK1

    _main->_map
    _map->___fltol
    ___fltol->___fladd

Critical Paths under _isr in BANK1

    None.

Critical Paths under _main in BANK3

    None.

Critical Paths under _isr in BANK3

    None.

Critical Paths under _main in BANK2

    None.

Critical Paths under _isr in BANK2

    None.

Call Graph Tables:

 ---------------------------------------------------------------------------------
 (Depth) Function   	        Calls       Base Space   Used Autos Params    Refs
 ---------------------------------------------------------------------------------
 (0) _main                                                 7     7      0   13334
                                             24 BANK1      5     5      0
                          _Lcd_Clear
                           _Lcd_Init
                     _Lcd_Set_Cursor
                   _Lcd_Write_String
                             ___bmul
                            ___lwdiv
                          _adc_start
                                _map
                              _setup
                            _sprintf
 ---------------------------------------------------------------------------------
 (1) _sprintf                                             23    18      5    1624
                                             14 BANK0     15    10      5
                            ___lwdiv
                            ___lwmod
 ---------------------------------------------------------------------------------
 (2) ___lwmod                                              6     2      4     311
                                              8 BANK0      6     2      4
                            ___lwdiv (ARG)
 ---------------------------------------------------------------------------------
 (2) ___lwdiv                                              8     4      4     618
                                              0 BANK0      8     4      4
 ---------------------------------------------------------------------------------
 (1) _setup                                                0     0      0     361
                           _adc_init
                       _init_osc_MHz
                          _tmr0_init
                        _tmr0_reload
 ---------------------------------------------------------------------------------
 (2) _tmr0_reload                                          0     0      0       0
 ---------------------------------------------------------------------------------
 (2) _tmr0_init                                            2     0      2     121
                                              0 BANK0      2     0      2
 ---------------------------------------------------------------------------------
 (2) _init_osc_MHz                                         3     3      0      22
                                              0 BANK0      3     3      0
 ---------------------------------------------------------------------------------
 (2) _adc_init                                             5     3      2     218
                                              0 BANK0      5     3      2
 ---------------------------------------------------------------------------------
 (1) _map                                                  7     1      6    7820
                                             17 BANK1      7     1      6
                            ___fladd
                            ___fldiv
                            ___flmul
                            ___fltol
                           ___xxtofl
 ---------------------------------------------------------------------------------
 (2) ___xxtofl                                            14    10      4     626
                                              0 BANK0     14    10      4
 ---------------------------------------------------------------------------------
 (2) ___fltol                                             11     7      4     305
                                             78 BANK0      2     2      0
                                              8 BANK1      9     5      4
                            ___fladd (ARG)
                            ___fldiv (ARG)
                            ___flmul (ARG)
                           ___xxtofl (ARG)
 ---------------------------------------------------------------------------------
 (2) ___flmul                                             26    18      8    2417
                                             40 BANK0     26    18      8
                          __Umul8_16
                            ___fldiv (ARG)
                           ___xxtofl (ARG)
 ---------------------------------------------------------------------------------
 (3) __Umul8_16                                            9     7      2     799
                                              0 BANK0      9     7      2
 ---------------------------------------------------------------------------------
 (2) ___fldiv                                             26    18      8    1273
                                             14 BANK0     26    18      8
                           ___xxtofl (ARG)
 ---------------------------------------------------------------------------------
 (2) ___fladd                                             20    12      8    2262
                                             66 BANK0     12     4      8
                                              0 BANK1      8     8      0
                            ___fldiv (ARG)
                            ___flmul (ARG)
                           ___xxtofl (ARG)
 ---------------------------------------------------------------------------------
 (1) _adc_start                                            2     2      0      44
                                              0 BANK0      2     2      0
 ---------------------------------------------------------------------------------
 (1) ___bmul                                               4     3      1     244
                                              0 BANK0      4     3      1
 ---------------------------------------------------------------------------------
 (1) _Lcd_Write_String                                     7     5      2     924
                                              5 BANK0      7     5      2
                     _Lcd_Write_Char
 ---------------------------------------------------------------------------------
 (2) _Lcd_Write_Char                                       4     4      0     254
                                              1 BANK0      4     4      0
                           _Lcd_Port
 ---------------------------------------------------------------------------------
 (1) _Lcd_Set_Cursor                                       7     6      1    1265
                                              4 BANK0      7     6      1
                            _Lcd_Cmd
 ---------------------------------------------------------------------------------
 (1) _Lcd_Init                                             2     2      0     279
                                              4 BANK0      2     2      0
                            _Lcd_Cmd
                           _Lcd_Port
 ---------------------------------------------------------------------------------
 (1) _Lcd_Clear                                            0     0      0     155
                            _Lcd_Cmd
 ---------------------------------------------------------------------------------
 (2) _Lcd_Cmd                                              3     3      0     155
                                              1 BANK0      3     3      0
                           _Lcd_Port
 ---------------------------------------------------------------------------------
 (3) _Lcd_Port                                             1     1      0     124
                                              0 BANK0      1     1      0
 ---------------------------------------------------------------------------------
 Estimated maximum stack depth 3
 ---------------------------------------------------------------------------------
 (Depth) Function   	        Calls       Base Space   Used Autos Params    Refs
 ---------------------------------------------------------------------------------
 (4) _isr                                                  3     3      0       0
                                              4 COMMON     3     3      0
                           _adc_read
                      i1_tmr0_reload
 ---------------------------------------------------------------------------------
 (5) i1_tmr0_reload                                        0     0      0       0
 ---------------------------------------------------------------------------------
 (5) _adc_read                                             4     2      2       0
                                              0 COMMON     4     2      2
 ---------------------------------------------------------------------------------
 Estimated maximum stack depth 5
 ---------------------------------------------------------------------------------

 Call Graph Graphs:

 _main (ROOT)
   _Lcd_Clear
     _Lcd_Cmd
       _Lcd_Port
   _Lcd_Init
     _Lcd_Cmd
     _Lcd_Port
   _Lcd_Set_Cursor
     _Lcd_Cmd
   _Lcd_Write_String
     _Lcd_Write_Char
       _Lcd_Port
   ___bmul
   ___lwdiv
   _adc_start
   _map
     ___fladd
       ___fldiv (ARG)
         ___xxtofl (ARG)
       ___flmul (ARG)
         __Umul8_16
         ___fldiv (ARG)
         ___xxtofl (ARG)
       ___xxtofl (ARG)
     ___fldiv
     ___flmul
     ___fltol
       ___fladd (ARG)
       ___fldiv (ARG)
       ___flmul (ARG)
       ___xxtofl (ARG)
     ___xxtofl
   _setup
     _adc_init
     _init_osc_MHz
     _tmr0_init
     _tmr0_reload
   _sprintf
     ___lwdiv
     ___lwmod
       ___lwdiv (ARG)

 _isr (ROOT)
   _adc_read
   i1_tmr0_reload

 Address spaces:
Name               Size   Autos  Total    Cost      Usage
BITCOMMON            E      0       0       0        0.0%
EEDATA             100      0       0       0        0.0%
NULL                 0      0       0       0        0.0%
CODE                 0      0       0       0        0.0%
COMMON               E      7       B       1       78.6%
BITSFR0              0      0       0       1        0.0%
SFR0                 0      0       0       1        0.0%
BITSFR1              0      0       0       2        0.0%
SFR1                 0      0       0       2        0.0%
STACK                0      0       0       2        0.0%
ABS                  0      0      83       3        0.0%
BITBANK0            50      0       0       4        0.0%
BITSFR3              0      0       0       4        0.0%
SFR3                 0      0       0       4        0.0%
BANK0               50     50      50       5      100.0%
BITSFR2              0      0       0       5        0.0%
SFR2                 0      0       0       5        0.0%
BITBANK1            50      0       0       6        0.0%
BANK1               50     1D      28       7       50.0%
BITBANK3            60      0       0       8        0.0%
BANK3               60      0       0       9        0.0%
BITBANK2            60      0       0      10        0.0%
BANK2               60      0       0      11        0.0%
DATA                 0      0      83      12        0.0%


Microchip Technology PIC Macro Assembler V2.35 build 20211206165544 
Symbol Table                                                                                   Fri Jul 29 19:43:55 2022

            ___fldiv@aexp 0047              ___fldiv@bexp 0046                         _s 00C7  
                       pc 0002              ___fldiv@sign 003F            ___bmul@product 0022  
                      l20 1645                        l21 164B                        l22 164C  
                      l23 1652                        l31 161C                        l40 09EB  
                      l25 1653                        l17 163D                        l18 163E  
                      l19 1644                        l43 1728                        l28 0898  
                      l37 098D                        l80 1673                        l49 176E  
                      l83 1677                        l75 08E4                        l99 17FF  
                      fsr 0004       __Umul8_16@word_mpld 0026                       l401 1633  
                     l154 0A4F                       l261 0C63                       l157 1604  
                     l258 16AF                       l371 07D4                       l710 0379  
                     l702 0353                       l711 0389                       l561 0AE1  
                     l810 0B9D                       l571 0AE1                       l740 0F71  
                     l724 0E7F                       l821 0B67                       l726 0FFF  
                     l822 0B73                       l814 0B4B                       l647 17B4  
                     l672 0198                       l568 0ACA                       l808 0B06  
                     l681 0389                       l657 16EB                       l674 0163  
                     l746 0FE3                       l770 0656                       l668 0097  
                     l748 0FF3                       l764 06EA                       l693 02D3  
                     l783 07EB                       l776 06DE                       l689 02A7  
                     l785 07FD                       l699 02F5                       _RD3 0043  
                     _RD4 0044                       _RD5 0045                       _RD6 0046  
                     _RD7 0047                       _PR2 0092                       _map 0B9E  
                     _isr 08E5                       fsr0 0004                       indf 0000  
            ___flmul@aexp 005A              ___flmul@bexp 005B              ___flmul@sign 0055  
            ___flmul@temp 0060              ___flmul@prod 005C              ___fltol@exp1 006F  
                    l2101 08D7                      l2103 08DA                      l2041 07DA  
                    l2105 08DD                      l2121 17D1                      l2113 17B8  
                    l2043 07E1                      l2203 0ABB                      l2123 17D6  
                    l2115 17BC                      l2211 1773                      l2301 009D  
                    l2045 07E5                      l2205 0ACF                      l2125 17DD  
                    l2117 17C3                      l2221 178B                      l2213 1779  
                    l2311 00C1                      l2303 00A1                      l2047 07F4  
                    l2039 07D8                      l2207 0AD4                      l2119 17CA  
                    l2223 179C                      l2215 177C                      l2231 17B0  
                    l2401 02D2                      l2321 00E9                      l2313 00C9  
                    l2305 00A9                      l2049 07F9                      l2129 17E4  
                    l3201 0A20                      l2225 17A2                      l2217 1783  
                    l2209 176F                      l2241 16C2                      l2403 02D7  
                    l2411 02E3                      l2331 0111                      l2323 00F1  
                    l2315 00D1                      l2307 00B1                      l2091 08AA  
                    l2083 089C                      l2227 17A3                      l2219 1787  
                    l2251 16E1                      l2243 16C6                      l2235 16B0  
                    l2405 02DA                      l2413 02E7                      l2341 0167  
                    l2333 0119                      l2325 00F9                      l2317 00D9  
                    l2309 00B9                      l2261 0039                      l2501 0EA5  
                    l2181 0A83                      l2173 0A50                      l2085 089D  
                    l3205 0A25                      l3221 1603                      l2229 17AA  
                    l2245 16CA                      l2237 16B8                      l2253 16E7  
                    l3301 0C7D                      l3151 1649                      l3223 1610  
                    l3231 0954                      l2431 034B                      l2423 02FA  
                    l2415 02E8                      l2407 02DC                      l2351 018A  
                    l2343 0174                      l2327 0101                      l2319 00E1  
                    l2335 0121                      l2271 0050                      l2263 003D  
                    l2511 0ED0                      l2183 0A86                      l2175 0A5F  
                    l2087 08A0                      l2095 08AD                      l3207 0A4B  
                    l2247 16D4                      l2239 16BB                      l3311 0CB0  
                    l3303 0C88                      l3153 1650                      l3145 1637  
                    l3161 088A                      l3241 097F                      l3233 095A  
                    l3225 0939                      l2441 036B                      l2433 0358  
                    l2425 02FF                      l2417 02EC                      l2409 02E1  
                    l2361 01AA                      l2345 0176                      l2353 0190  
                    l2337 0122                      l2329 0109                      l2281 006A  
                    l2273 0051                      l2265 003E                      l2257 0024  
                    l2521 0EF5                      l2513 0ED8                      l2505 0EAE  
                    l2601 039C                      l2185 0A8E                      l2089 08A5  
                    l2097 08C3                      l3209 0A4E                      l2249 16DA  
                    l3313 0CB6                      l3321 0D06                      l3305 0C92  
                    l3147 163B                      l3163 0895                      l3155 0880  
                    l3251 09AE                      l3243 0985                      l3227 093E  
                    l3235 0963                      l3171 1708                      l2443 036F  
                    l2435 035D                      l2427 030D                      l2419 02F2  
                    l2371 01D8                      l2363 01C1                      l2355 019C  
                    l2347 017A                      l2339 013F                      l2291 007F  
                    l2283 006B                      l2267 0043                      l2275 0053  
                    l2259 002F                      l2531 0F20                      l2523 0EF6  
                    l2515 0EDA                      l2507 0EC0                      l2451 0E23  
                    l2611 03B8                      l2603 03A1                      l2195 0A9E  
                    l2187 0A92                      l2179 0A6A                      l2099 08D3  
                    l3219 15FF                      l3331 0D4B                      l3323 0D0B  
                    l3315 0CB8                      l3307 0C9D                      l3149 1642  
                    l3157 0881                      l3253 09B4                      l3245 098E  
                    l3237 0969                      l3229 094F                      l3181 171E  
                    l3173 170B                      l3165 16EF                      l3261 1752  
                    l2445 0371                      l2437 0365                      l2429 0311  
                    l2381 0209                      l2373 01DC                      l2365 01C5  
                    l2357 01A1                      l2349 017B                      l2293 0084  
                    l2285 0075                      l2277 005B                      l2269 0048  
                    l2541 0F3D                      l2517 0EDF                      l2525 0EFF  
                    l2533 0F24                      l2509 0EC8                      l2461 0E3A  
                    l2453 0E2A                      l2701 065B                      l2621 03CD  
                    l2613 03BD                      l2605 03A6                      l2189 0A96  
                    l2197 0AB4                      l3341 0DAF                      l3325 0D11  
                    l3333 0D5F                      l3317 0CD2                      l3309 0CAB  
                    l3159 0887                      l3247 0994                      l3239 097A  
                    l3183 1725                      l3175 1712                      l3167 16F9  
                    l3255 1729                      l2447 0384                      l2439 036A  
                    l2391 02AF                      l2383 027B                      l2375 01DD  
                    l2367 01C9                      l2295 008C                      l2287 0079  
                    l2279 0064                      l2551 0F55                      l2543 0F41  
                    l2535 0F2A                      l2527 0F11                      l2519 0EF1  
                    l2471 0E52                      l2463 0E3F                      l2455 0E30  
                    l2703 0660                      l2711 0691                      l2631 03E9  
                    l2623 03D2                      l2615 03C3                      l2607 03AE  
                    l3191 09FD                      l3271 1698                      l3263 1678  
                    l3351 0DDF                      l3343 0DB9                      l3335 0D64  
                    l3327 0D12                      l3319 0CF1                      l3249 099E  
                    l3177 1715                      l3169 16FA                      l3257 172E  
                    l2449 0388                      l2393 02B4                      l2385 0285  
                    l2377 01EC                      l2369 01D6                      l2297 008D  
                    l2289 007A                      l2561 0F76                      l2553 0F56  
                    l2545 0F42                      l2537 0F32                      l2529 0F12  
                    l2481 0E67                      l2473 0E57                      l2465 0E47  
                    l2457 0E34                      l2721 06C4                      l2713 069E  
                    l2705 066E                      l2641 0414                      l2633 03EE  
                    l2625 03DA                      l2617 03C7                      l2609 03B0  
                    l3193 0A04                      l3185 09EC                      l3281 169F  
                    l3273 169B                      l3265 1685                      l3353 0E15  
                    l3337 0D6E                      l3345 0DC5                      l3329 0D2C  
                    l3179 171B                      l3259 174A                      l2387 028A  
                    l2379 01F3                      l2299 008F                      l2563 0F7B  
                    l2571 0FAC                      l2555 0F5A                      l2547 0F4B  
                    l2539 0F34                      l2491 0E87                      l2483 0E6C  
                    l2475 0E5D                      l2467 0E48                      l2459 0E35  
                    l2723 06D2                      l2715 06A9                      l2707 0672  
                    l2651 04B1                      l2643 0431                      l2627 03DC  
                    l2619 03C8                      l3195 0A0B                      l3187 09F1  
                    l3283 16A4                      l3275 169C                      l3267 168B  
                    l3347 0DCA                      l3339 0D79                      l2821 1667  
                    l2397 02BD                      l2389 0299                      l2581 0FE2  
                    l2573 0FB9                      l2565 0F89                      l2557 0F6E  
                    l2549 0F51                      l2493 0E93                      l2485 0E74  
                    l2477 0E61                      l2469 0E4A                      l2725 06D6  
                    l2717 06B8                      l2709 068B                      l2661 0514  
                    l2653 04BA                      l2645 044D                      l2637 03F7  
                    l2629 03E4                      l2741 0B0E                      l2733 0AE5  
                    l3285 0BA1                      l3197 0A12                      l3189 09F6  
                    l3277 169D                      l3269 1695                      l2901 0775  
                    l3349 0DD4                      l3293 0C64                      l2823 1669  
                    l2399 02CC                      l2583 0FE9                      l2575 0FC7  
                    l2567 0F8D                      l2495 0E97                      l2487 0E75  
                    l2479 0E62                      l2727 06D7                      l2719 06C2  
                    l2671 05B4                      l2663 052D                      l2655 04CA  
                    l2647 0479                      l2639 0407                      l2751 0B30  
                    l2735 0AEA                      l3471 0A46                      l3199 0A19  
                    l3279 169E                      l2903 077A                      l2911 07BE  
                    l3295 0C69                      l2921 1620                      l2825 1670  
                    l2817 1657                      l2585 0FED                      l2577 0FD6  
                    l2569 0FA6                      l2489 0E77                      l2729 06E2  
                    l2681 0622                      l2673 05DA                      l2665 054A  
                    l2657 04E7                      l2649 0495                      l2593 038A  
                    l2761 0B61                      l2753 0B34                      l2745 0B17  
                    l2737 0AEE                      l3473 17EE                      l2905 07AA  
                    l2913 07D0                      l3297 0C6E                      l2931 1632  
                    l2923 1621                      l2819 165D                      l2587 0FEF  
                    l2579 0FDA                      l2499 0EA0                      l2691 063A  
                    l2683 0626                      l2675 0602                      l2667 0577  
                    l2659 04F7                      l2595 0391                      l2771 0B94  
                    l2763 0B6B                      l2755 0B42                      l2747 0B1C  
                    l2739 0AFE                      l3475 08B5                      l2907 07B1  
                    l3467 0718                      l3299 0C73                      l2925 1625  
                    l2693 063B                      l2685 0627                      l2677 060B  
                    l2669 0587                      l2597 0397                      l2773 0B95  
                    l2765 0B75                      l2757 0B52                      l2749 0B29  
                    l3469 0A2F                      l2909 07B5                      l2861 06F3  
                    ?_map 00B1                      l2927 1629                      l2695 063F  
                    l2687 0630                      l2679 0619                      l2599 039B  
                    l2767 0B8B                      l2759 0B5D                      l2871 0706  
                    l2863 06F9                      l2929 162B                      l2697 0653  
                    l2689 0636                      l2769 0B90                      l2881 0737  
                    l2873 0723                      l2865 0700                      l2883 073C  
                    l2875 072B                      l2867 0705                      l2859 06EE  
                    l2893 075A                      l2877 072F                      l2895 0764  
                    l2879 0733                      l2897 076A                      l2889 073E  
                    l2899 0771                      ?_isr 0070                      STR_1 0863  
                    STR_2 0873                      STR_3 081A                      STR_4 0840  
                    STR_5 0852                      STR_6 082D                      u2010 0AB3  
                    u2011 0AB2                      u2020 0ABA                      u2100 179C  
                    u2021 0AB9                      u2005 0A9F                      u2101 179B  
                    u2200 0043                      u3000 03E9                      u2040 0ACF  
                    u2120 17B0                      u2201 0042                      u3001 03E8  
                    u2041 0ACE                      u2121 17AF                      u2105 1798  
                    u2210 0048                      u3010 03EE                      u2050 0AD4  
                    u2130 16B8                      u2211 0047                      u3011 03ED  
                    u2051 0AD3                      u2035 0ABF                      u2115 17A4  
                    u2131 16B7                      u2300 014B                      u2220 006A  
                    u2060 1779                      u2221 0069                      u3101 053C  
                    u3021 043F                      u2061 1778                      u2310 0167  
                    u2230 0079                      u3102 0543                      u3022 0446  
                    u2150 16CA                      u2311 0166                      u2231 0078  
                    u3111 0569                      u3103 054A                      u3031 045B  
                    u3023 044D                      u2151 16C9                      u2400 01DC  
                    u2320 017A                      u2240 007F                      u3112 0570  
                    u3032 0462                      u2080 178B                      u2160 16D4  
                    u2401 01DB                      u2321 0179                      u2241 007E  
                    u3121 0596                      u3113 0577                      u3041 0487  
                    u3033 0469                      u2081 178A                      u2161 16D3  
                    u2145 16BC                      u2250 0084                      u3210 063A  
                    u3130 05C0                      u3122 059D                      u3042 048E  
                    u2251 0083                      u3211 0639                      u3123 05A4  
                    u3051 04A3                      u3043 0495                      u2075 177D  
                    u2500 02D7                      u2420 0209                      u2340 0198  
                    u2260 009D                      u3300 06D6                      u3220 063F  
                    u3052 04AA                      u2180 16E7                      u2501 02D6  
                    u2421 0208                      u2341 0197                      u2261 009C  
                    u3301 06D5                      u3221 063E                      u3205 0629  
                    u3141 05CC                      u3053 04B1                      u2181 16E6  
                    u2165 16D0                      u2510 02E1                      u2350 019C  
                    u2270 00A1                      u2190 003D                      u3230 0653  
                    u3150 05E8                      u3142 05D3                      u3310 0AEA  
                    u2511 02E0                      u2431 0238                      u2423 0205  
                    u2415 01E1                      u2351 019B                      u2335 017F  
                    u2271 00A0                      u2191 003C                      u3231 0652  
                    u3143 05DA                      u3135 05BB                      u3071 04D9  
                    u3311 0AE9                      u2095 178C                      u2175 16DB  
                    u2600 0358                      u2520 02E7                      u2440 025A  
                    u2432 023B                      u2360 01A1                      u2280 013F  
                    u3240 065A                      u3072 04E0                      u3400 0B67  
                    u3320 0AEE                      u2601 0357                      u2521 02E6  
                    u2441 025B                      u2433 0242                      u2361 01A0  
                    u2281 013E                      u3241 0659                      u3161 05F4  
                    u3081 0506                      u3073 04E7                      u3065 04B3  
                    u3401 0B66                      u3321 0AED                      u2610 035D  
                    u2530 02EC                      u2450 028A                      u2442 0260  
                    u2434 0245                      u2290 014A                      u3250 0660  
                    u3162 05FB                      u3082 050D                      u3410 0B6B  
                    u3330 0B0E                      u2611 035C                      u2531 02EB  
                    u2451 0289                      u2443 0261                      u2435 024C  
                    u2371 01B3                      u2291 0148                      u3251 065F  
                    u3163 0602                      u3155 05E3                      u3083 0514  
                    u3411 0B6A                      u3331 0B0D                      u2620 036A  
                    u2540 02F2                      u2460 02AF                      u2436 024F  
                    u2380 01C5                      u2372 01BA                      u2700 0E6C  
                    u3260 0672                      u3420 0B80                      u2621 0369  
                    u2541 02F1                      u2461 02AE                      u2381 01C4  
                    u2373 01C1                      u2285 013B                      u2701 0E6B  
                    u3261 0671                      u2630 036F                      u2550 02F9  
                    u2470 02B4                      u2390 01C9                      u2710 0E87  
                    u3270 0681                      u3190 0626                      u3430 0B90  
                    u3350 0B2F                      u2631 036E                      u2551 02F8  
                    u2471 02B3                      u2391 01C8                      u2711 0E86  
                    u3191 0625                      u3175 0604                      u3095 0516  
                    u3431 0B8F                      u3351 0B2E                      u3520 165D  
                    u2640 0388                      u2560 02FF                      u2800 0F32  
                    u2720 0EA5                      u1920 07E5                      u3280 069E  
                    u3440 0B94                      u3600 07D0                      u3521 165C  
                    u2641 0387                      u2561 02FE                      u2801 0F31  
                    u2721 0EA4                      u1921 07E4                      u3281 069D  
                    u3185 061B                      u3441 0B93                      u3425 0B7B  
                    u3345 0B21                      u3601 07CF                      u3610 1625  
                    u3530 1677                      u2570 0311                      u2490 02D2  
                    u2730 0EDF                      u2650 0E34                      u3290 06B8  
                    u3370 0B51                      u3611 1624                      u3531 1676  
                    u2571 0310                      u2491 02D1                      u2731 0EDE  
                    u2651 0E33                      u3291 06B7                      u3275 067C  
                    u3371 0B50                      u3620 1632                      u2580 032E  
                    u2900 0F9C                      u2820 0F41                      u2660 0E3A  
                    u1940 07F9                      u3540 06F9                      u3621 1631  
                    u2485 02C1                      u2821 0F40                      u2661 0E39  
                    u1941 07F8                      u3285 069A                      u3365 0B43  
                    u3541 06F8                      u2590 034B                      u2910 0FB9  
                    u2670 0E3F                      u3390 0B61                      u3550 0733  
                    u2591 034A                      u2911 0FB8                      u2815 0F36  
                    u2671 0E3E                      u1935 07EC                      u3295 06B4  
                    u3391 0B60                      u3551 0732                      u2920 0FD6  
                    u2840 0F55                      u2760 0EF5                      u2680 0E61  
                    u1960 0A5F                      u3560 0759                      u2585 0329  
                    u2921 0FD5                      u2905 0F97                      u2841 0F54  
                    u2761 0EF4                      u2745 0EE1                      u2681 0E60  
                    u1961 0A5E                      u3385 0B56                      u3561 0758  
                    u3810 0969                      u2930 0FED                      u2850 0F5A  
                    u2690 0E67                      u1970 0A7A                      u3570 0764  
                    u3811 0968                      u2931 0FEC                      u2915 0FB5  
                    u2851 0F59                      u2835 0F44                      u2755 0EEA  
                    u2691 0E66                      u3571 0763                      u3740 163B  
                    u2860 0F6E                      u2780 0F11                      u2940 039B  
                    u1980 0A96                      u3580 076A                      u3741 163A  
                    u3805 0946                      u2925 0FD2                      u2861 0F6D  
                    u2781 0F10                      u2941 039A                      u1981 0A95  
                    u3581 0769                      u3565 0755                      u3750 1642  
                    u3830 1738                      u2870 0F75                      u2790 0F2A  
                    u2950 03A1                      u1990 0A9D                      u3590 07BE  
                    u3751 1641                      u2871 0F74                      u2791 0F29  
                    u2775 0EF8                      u2951 03A0                      u1991 0A9C  
                    u1975 0A75                      u3591 07BD                      u3760 1649  
                    u3840 175C                      u2880 0F7B                      u2960 03A6  
                    u3761 1648                      u3825 0971                      u2881 0F7A  
                    u2785 0F0D                      u2961 03A5                      u3770 1650  
                    u3850 176E                      u2890 0F8D                      u2970 03C7  
                    u3771 164F                      u3851 176D                      u2891 0F8C  
                    u2971 03C6                      u3907 0CA5                      u2980 03CD  
                    u3860 0CB0                      u2981 03CC                      u3917 08E1  
                    u3861 0CAF                      u3790 093E                      u2990 03D2  
                    u3870 0D0B                      u3791 093D                      u3927 166D  
                    u2991 03D1                      u3871 0D0A                      u3880 0D64  
                    u3937 170F                      u3785 16FD                      u3881 0D63  
                    u3890 0DCA                      u3947 1722                      u3891 0DC9  
                    u3957 099A                      i1l86 160F                      u3967 09AA  
                    u3977 09B8                      u3987 0890                      _TMR0 0001  
       ?_Lcd_Write_String 0025                      _main 0C64                      map@x 00B7  
                    btemp 007E                      start 000C        ??_Lcd_Write_String 0027  
         ___fldiv@new_exp 0040           __end_of_Lcd_Cmd 0899         ___bmul@multiplier 0023  
                   ??_map 0070                     ??_isr 0074             ___fltol@sign1 006E  
         __end_of___fladd 038A                     ?_main 0070           __end_of___fldiv 1000  
         __end_of___flmul 06EB           __end_of___fltol 0AE2           __end_of___lwdiv 17B5  
                   i1l241 092F                     i1l157 15FE                     i1l237 092F  
         __end_of___lwmod 16EC                     _PORTB 0006                     _TRISB 0086  
                   _TRISC 0087                     _TRISD 0088          adc_start@channel 0021  
      adc_init@vref_minus 0021           __end_of_dpowers 081A                     map@x0 00B1  
                   map@x1 00B2                     map@y0 00B3                     map@y1 00B5  
                   _setup 1678                     pclath 000A                     status 0003  
                   wtemp0 007E           __end_of_sprintf 07D5          __end_of_Lcd_Init 09EC  
        __end_of_Lcd_Port 1654           __initialization 000F              __end_of_main 0E23  
                  ??_main 00B8              ?_tmr0_reload 0070                    _ADRESH 001E  
                  _CCPR1L 0015                    _CCPR2L 001B                    ?_setup 0070  
                  _ANSELH 0189          __end_of_adc_init 08E5          __end_of_adc_read 1610  
                  i1l2827 1605                    i1l2829 1608                    i1l2935 15F9  
                  i1l2951 08FA                    i1l2943 08E5                    i1l2937 15FD  
                  i1l2961 090D                    i1l2953 08FF                    i1l2945 08E9  
                  i1l2963 0912                    i1l2955 0901                    i1l2947 08F3  
                  i1l2965 091E                    i1l2949 08F8                    i1l2957 0902  
                  i1l2967 0923                    i1l2959 0907                    u363_20 08E9  
                  u363_21 08E8                    u364_20 08F3                    u364_21 08F2  
                  u365_20 08F8                    u365_21 08F7                    u366_20 08FF  
                  u366_21 08FE                    u367_20 090D                    u367_21 090C  
                  u368_20 0912                    u368_21 0911                    u369_20 0923  
                  u369_21 0922                 ??_Lcd_Cmd 0021          __end_of___xxtofl 0B9E  
           ?_init_osc_MHz 0070                    ___bmul 161D                 ??___fladd 00A0  
               ??___fldiv 0036                 ??___flmul 0050                 ??___fltol 00AC  
               ??___lwdiv 0024                 ??___lwmod 002C          init_osc_MHz@freq 0022  
                  saved_w 007E                 ??_sprintf 0033           Lcd_Set_Cursor@a 0027  
         Lcd_Set_Cursor@b 0024           Lcd_Set_Cursor@y 0029           Lcd_Set_Cursor@z 0028  
            ___xxtofl@arg 002A              ___xxtofl@exp 0029              ___xxtofl@val 0020  
 __end_of__initialization 0020            ??_init_osc_MHz 0020         __end_of_Lcd_Clear 161D  
              ___fltol@f1 00A8       ___bmul@multiplicand 0020            __pcstackCOMMON 0070  
           __end_of_setup 16B0            _Lcd_Set_Cursor 0936            _OPTION_REGbits 0081  
               ?_Lcd_Init 0070            adc_init@adc_cs 0024                 ?_Lcd_Port 0070  
                 ??_setup 0025                __pbssBANK1 00BD         __end_of__Umul8_16 07FE  
              __pmaintext 0C64                   ?___bmul 0020                __pintentry 0004  
                 _CCP1CON 0017                   _CCP2CON 001D    __end_of_Lcd_Set_Cursor 098E  
               ?_adc_init 0020                 ?_adc_read 0070         __end_of_adc_start 1678  
               ?___xxtofl 0020                ??_Lcd_Init 0024                ??_Lcd_Port 0020  
              __stringtab 0800            _Lcd_Write_Char 16EC                   _Lcd_Cmd 087D  
              _init_POT_0 00C4                _init_POT_1 00C2                   ___fladd 0024  
                 ___fldiv 0E23                   ___flmul 038A                   ___fltol 0A50  
                 ___lwdiv 176F                   ___lwmod 16B0                   _bandera 0078  
         ?_Lcd_Set_Cursor 0024                ??_adc_init 0022                ??_adc_read 0072  
                 __ptext1 06EB                   __ptext2 16B0                   __ptext3 176F  
                 __ptext4 1678                   __ptext5 15FF                   __ptext6 09EC  
                 __ptext7 17B5                   __ptext8 0899                   __ptext9 0B9E  
    __end_of_init_osc_MHz 1800                   _dpowers 0810                 _T2CONbits 0012  
              ??___xxtofl 0024             i1_tmr0_reload 15F9                   _sprintf 06EB  
  __end_of_Lcd_Write_Char 1729      end_of_initialization 0020         __end_of_tmr0_init 0A50  
               Lcd_Port@a 0020                 _VAL_POT_0 00C6                 _VAL_POT_1 00C5  
               _PORTDbits 0008               ___fladd@grs 006D                 _VOLTAJE_0 00BF  
               _VOLTAJE_1 00BD             ___xxtofl@sign 0028                 _TRISCbits 0087  
          ?i1_tmr0_reload 0070               ___fldiv@grs 0042               ___fldiv@rem 003B  
         ?_Lcd_Write_Char 0070         Lcd_Write_String@a 0025         Lcd_Write_String@i 002A  
             ___flmul@grs 0056               _CCP1CONbits 0017               _CCP2CONbits 001D  
               _Lcd_Clear 1610            __end_of___bmul 1634          _Lcd_Write_String 1729  
       adc_init@vref_plus 0020       start_initialization 000F               __end_of_map 0C64  
             __end_of_isr 0936                ?_Lcd_Clear 0070                  ??___bmul 0021  
               __Umul8_16 07D5           Lcd_Write_Char@a 0024           Lcd_Write_Char@y 0023  
           _ciclo_trabajo 0077                 ___fladd@a 0066                 ___fladd@b 0062  
               ___fldiv@a 002E                 ___fldiv@b 0032           ??i1_tmr0_reload 0070  
               ___flmul@a 004C                 ___flmul@b 0048               __pbssCOMMON 0077  
               ___latbits 0002             __pcstackBANK0 0020             __pcstackBANK1 00A0  
               _dec_POT_0 00C3                 _dec_POT_1 00C1                 _adc_start 1654  
               _canal_ADC 0079                  ?_Lcd_Cmd 0070               sprintf@flag 0037  
             sprintf@prec 0038              _init_osc_MHz 17B5          ___lwdiv@dividend 0022  
        ??_Lcd_Set_Cursor 0025                  ?___fladd 0062                  ?___fldiv 002E  
                ?___flmul 0048                  ?___fltol 00A8                ?__Umul8_16 0020  
                ?___lwdiv 0020                  ?___lwmod 0028                 __pstrings 0800  
           ??_tmr0_reload 0020          ___lwdiv@quotient 0025                  ?_sprintf 002E  
              ?_adc_start 0070         interrupt_function 0004                 _tmr0_init 09EC  
                _PIE1bits 008C                  Lcd_Cmd@a 0023                  _PIR1bits 000C  
             ??_Lcd_Clear 0024        tmr0_init@prescaler 0020                _ADCON0bits 001F  
             __stringbase 080F                _ADCON1bits 009F          ??_Lcd_Write_Char 0021  
                _Lcd_Init 098E                  _Lcd_Port 1634  __end_of_Lcd_Write_String 176F  
     __end_of_tmr0_reload 1605                ?_tmr0_init 0020               ??__Umul8_16 0022  
      __end_of__stringtab 0810                  _adc_init 0899                  _adc_read 1605  
              sprintf@val 0039                  ___xxtofl 0AE2           ___lwdiv@divisor 0020  
         ___lwdiv@counter 0027                  __ptext10 0AE2                  __ptext11 0A50  
                __ptext20 0936                  __ptext12 038A                  __ptext21 098E  
                __ptext13 07D5                  __ptext22 1610                  __ptext14 0E23  
                __ptext23 087D                  __ptext15 0024                  __ptext24 1634  
                __ptext16 1654                  __ptext25 08E5                  __ptext17 161D  
                __ptext26 15F9                  __ptext18 1729                  __ptext27 1605  
                __ptext19 16EC               ??_adc_start 0020                  _contador 007A  
              _INTCONbits 000B               _tmr0_reload 15FF        Lcd_Write_Char@temp 0022  
                intlevel1 0000                 sprintf@ap 0036                 sprintf@sp 003B  
        ___lwmod@dividend 002A               ??_tmr0_init 0022                 stringcode 080A  
              _OSCCONbits 008F        Lcd_Set_Cursor@temp 002A    __Umul8_16@multiplicand 0020  
                sprintf@c 003C                  sprintf@f 002E           ___lwmod@divisor 0028  
         ___lwmod@counter 002D                  stringdir 080A                  stringtab 0800  
   __end_ofi1_tmr0_reload 15FF             ___fladd@signs 006A              ___fladd@aexp 006B  
            ___fladd@bexp 006C      __Umul8_16@multiplier 0028         __Umul8_16@product 0024  
